	.file	"dhry_stubs.c"
	.option nopic
	.attribute arch, "rv32i2p0_m2p0_a2p0_c2p0"
	.attribute unaligned_access, 0
	.attribute stack_align, 16
	.text
.Ltext0:
	.cfi_sections	.debug_frame
	.section	.text.csr_cycle,"ax",@progbits
	.align	1
	.align	2
	.globl	csr_cycle
	.type	csr_cycle, @function
csr_cycle:
.LFB0:
	.file 1 "dhry_stubs.c"
	.loc 1 6 1
	.cfi_startproc
	.loc 1 7 3
	.loc 1 7 10 is_stmt 0
	tail	get_cycle_value
.LVL0:
	.cfi_endproc
.LFE0:
	.size	csr_cycle, .-csr_cycle
	.section	.text.csr_instret,"ax",@progbits
	.align	1
	.align	2
	.globl	csr_instret
	.type	csr_instret, @function
csr_instret:
.LFB1:
	.loc 1 11 1 is_stmt 1
	.cfi_startproc
	.loc 1 12 3
	.loc 1 12 10 is_stmt 0
	tail	get_instret_value
.LVL1:
	.cfi_endproc
.LFE1:
	.size	csr_instret, .-csr_instret
	.section	.text.time,"ax",@progbits
	.align	1
	.align	2
	.globl	time
	.type	time, @function
time:
.LFB2:
	.loc 1 16 1 is_stmt 1
	.cfi_startproc
	.loc 1 17 3
	.loc 1 16 1 is_stmt 0
	addi	sp,sp,-16
	.cfi_def_cfa_offset 16
	sw	ra,12(sp)
	sw	s0,8(sp)
	.cfi_offset 1, -4
	.cfi_offset 8, -8
	.loc 1 17 10
	call	get_timer_value
.LVL2:
	mv	s0,a0
	.loc 1 17 30
	call	get_timer_freq
.LVL3:
	.loc 1 18 1
	div	a0,s0,a0
	lw	ra,12(sp)
	.cfi_restore 1
	lw	s0,8(sp)
	.cfi_restore 8
	addi	sp,sp,16
	.cfi_def_cfa_offset 0
	jr	ra
	.cfi_endproc
.LFE2:
	.size	time, .-time
	.text
.Letext0: