	.file	"dhry_1.c"
	.option nopic
	.attribute arch, "rv32i2p0_m2p0_a2p0_c2p0"
	.attribute unaligned_access, 0
	.attribute stack_align, 16
	.text
.Ltext0:
	.cfi_sections	.debug_frame
	.section	.text.Proc_2,"ax",@progbits
	.align	1
	.align	2
	.globl	Proc_2
	.type	Proc_2, @function
Proc_2:
.LFB6:
	.file 1 "dhry_1.c"
	.loc 1 375 1
	.cfi_startproc
.LVL0:
	.loc 1 376 3
	.loc 1 377 3
	.loc 1 379 3
	.loc 1 381 19 is_stmt 0
	lui	a5,%hi(.LANCHOR0)
	.loc 1 381 8
	lbu	a4,%lo(.LANCHOR0)(a5)
	li	t0,65
.LVL1:
	.loc 1 380 3 is_stmt 1
	.loc 1 381 5
	.loc 1 381 8 is_stmt 0
	beq	a4,t0,.L4
.LVL2:
	.loc 1 388 9 is_stmt 1
.LVL3:
	.loc 1 389 1 is_stmt 0
	ret
.LVL4:
	.align	2
.L4:
	.loc 1 384 7 is_stmt 1
	.loc 1 385 7
	.loc 1 384 15 is_stmt 0
	lw	t1,0(a0)
	.loc 1 385 30
	lui	t2,%hi(.LANCHOR1)
	lw	a1,%lo(.LANCHOR1)(t2)
	.loc 1 384 15
	addi	a2,t1,9
.LVL5:
	.loc 1 385 30
	sub	a3,a2,a1
	.loc 1 385 20
	sw	a3,0(a0)
	.loc 1 386 7 is_stmt 1
.LVL6:
	.loc 1 388 9
.LVL7:
	.loc 1 389 1 is_stmt 0
	ret
	.cfi_endproc
.LFE6:
	.size	Proc_2, .-Proc_2
	.section	.text.Proc_3,"ax",@progbits
	.align	1
	.align	2
	.globl	Proc_3
	.type	Proc_3, @function
Proc_3:
.LFB7:
	.loc 1 399 1 is_stmt 1
	.cfi_startproc
.LVL8:
	.loc 1 400 3
	.loc 1 400 16 is_stmt 0
	lui	a5,%hi(.LANCHOR2)
	addi	t0,a5,%lo(.LANCHOR2)
	lw	a2,0(t0)
	.loc 1 400 6
	beqz	a2,.L6
	.loc 1 402 5 is_stmt 1
	.loc 1 402 28 is_stmt 0
	lw	a4,0(a2)
	.loc 1 402 18
	sw	a4,0(a0)
	lw	a2,0(t0)
.L6:
	.loc 1 403 3 is_stmt 1
	lui	t1,%hi(.LANCHOR1)
	lw	a1,%lo(.LANCHOR1)(t1)
	addi	a2,a2,12
	li	a0,10
.LVL9:
	tail	Proc_7
.LVL10:
	.cfi_endproc
.LFE7:
	.size	Proc_3, .-Proc_3
	.section	.text.Proc_1,"ax",@progbits
	.align	1
	.align	2
	.globl	Proc_1
	.type	Proc_1, @function
Proc_1:
.LFB5:
	.loc 1 340 1
	.cfi_startproc
.LVL11:
	.loc 1 341 3
	.loc 1 340 1 is_stmt 0
	addi	sp,sp,-16
	.cfi_def_cfa_offset 16
	sw	s2,0(sp)
	.cfi_offset 18, -16
	.loc 1 346 28
	lui	s2,%hi(.LANCHOR2)
	addi	s2,s2,%lo(.LANCHOR2)
	.loc 1 346 26
	lw	a5,0(s2)
	.loc 1 340 1
	sw	s0,8(sp)
	.cfi_offset 8, -8
	.loc 1 341 15
	lw	s0,0(a0)
.LVL12:
	.loc 1 346 3 is_stmt 1
	.loc 1 346 26 is_stmt 0
	lw	a4,0(a5)
	.loc 1 340 1
	sw	ra,12(sp)
	sw	s1,4(sp)
	.cfi_offset 1, -4
	.cfi_offset 9, -12
	.loc 1 346 26
	lw	t4,4(a5)
	lw	t3,8(a5)
	lw	t1,16(a5)
	lw	a7,20(a5)
	lw	a6,24(a5)
	lw	a1,32(a5)
	lw	a2,36(a5)
	lw	a3,40(a5)
	lw	ra,44(a5)
	.loc 1 340 1
	mv	s1,a0
	.loc 1 346 26
	lw	a0,28(a5)
.LVL13:
	sw	a4,0(s0)
	.loc 1 350 38
	lw	t0,0(s1)
	.loc 1 347 39
	li	t2,5
	.loc 1 346 26
	sw	a0,28(s0)
	sw	t4,4(s0)
	sw	t3,8(s0)
	sw	t1,16(s0)
	sw	a7,20(s0)
	sw	a6,24(s0)
	sw	a1,32(s0)
	sw	a2,36(s0)
	sw	a3,40(s0)
	sw	ra,44(s0)
	.loc 1 347 3 is_stmt 1
	.loc 1 347 39 is_stmt 0
	sw	t2,12(s1)
	.loc 1 348 3 is_stmt 1
	.loc 1 349 9 is_stmt 0
	sw	t2,12(s0)
	.loc 1 350 3 is_stmt 1
	.loc 1 350 25 is_stmt 0
	sw	t0,0(s0)
	.loc 1 351 3 is_stmt 1
	mv	a0,s0
	call	Proc_3
.LVL14:
	.loc 1 354 3
	.loc 1 354 6 is_stmt 0
	lw	t5,4(s0)
	beqz	t5,.L13
	.loc 1 365 5 is_stmt 1
	.loc 1 365 32 is_stmt 0
	lw	s2,0(s1)
	.loc 1 366 1
	lw	ra,12(sp)
	.cfi_remember_state
	.cfi_restore 1
	.loc 1 365 18
	lw	s0,4(s2)
.LVL15:
	lw	t6,0(s2)
	lw	t4,8(s2)
	lw	t3,12(s2)
	lw	t1,16(s2)
	lw	a7,20(s2)
	lw	a6,24(s2)
	lw	a1,28(s2)
	lw	a2,32(s2)
	lw	a3,36(s2)
	lw	a4,40(s2)
	lw	a5,44(s2)
	sw	s0,4(s1)
	.loc 1 366 1
	lw	s0,8(sp)
	.cfi_restore 8
	.loc 1 365 18
	sw	t6,0(s1)
	sw	t4,8(s1)
	sw	t3,12(s1)
	sw	t1,16(s1)
	sw	a7,20(s1)
	sw	a6,24(s1)
	sw	a1,28(s1)
	sw	a2,32(s1)
	sw	a3,36(s1)
	sw	a4,40(s1)
	sw	a5,44(s1)
	.loc 1 366 1
	lw	s2,0(sp)
	.cfi_restore 18
	lw	s1,4(sp)
	.cfi_restore 9
.LVL16:
	addi	sp,sp,16
	.cfi_def_cfa_offset 0
	jr	ra
.LVL17:
	.align	2
.L13:
	.cfi_restore_state
.LBB2:
	.loc 1 357 5 is_stmt 1
	.loc 1 358 5 is_stmt 0
	lw	a0,8(s1)
	.loc 1 357 41
	li	s1,6
.LVL18:
	.loc 1 358 5
	addi	a1,s0,8
	.loc 1 357 41
	sw	s1,12(s0)
	.loc 1 358 5 is_stmt 1
	call	Proc_6
.LVL19:
	.loc 1 360 5
	.loc 1 360 37 is_stmt 0
	lw	t0,0(s2)
	.loc 1 361 5
	lw	a0,12(s0)
	addi	a2,s0,12
	.loc 1 360 37
	lw	t2,0(t0)
.LBE2:
	.loc 1 366 1
	lw	ra,12(sp)
	.cfi_restore 1
	lw	s1,4(sp)
	.cfi_restore 9
.LBB3:
	.loc 1 360 27
	sw	t2,0(s0)
	.loc 1 361 5 is_stmt 1
.LBE3:
	.loc 1 366 1 is_stmt 0
	lw	s0,8(sp)
	.cfi_restore 8
.LVL20:
	lw	s2,0(sp)
	.cfi_restore 18
.LBB4:
	.loc 1 361 5
	li	a1,10
.LBE4:
	.loc 1 366 1
	addi	sp,sp,16
	.cfi_def_cfa_offset 0
.LBB5:
	.loc 1 361 5
	tail	Proc_7
.LVL21:
.LBE5:
	.cfi_endproc
.LFE5:
	.size	Proc_1, .-Proc_1
	.section	.text.Proc_4,"ax",@progbits
	.align	1
	.align	2
	.globl	Proc_4
	.type	Proc_4, @function
Proc_4:
.LFB8:
	.loc 1 410 1 is_stmt 1
	.cfi_startproc
	.loc 1 411 3
	.loc 1 413 3
.LVL22:
	.loc 1 414 3
	.loc 1 413 24 is_stmt 0
	lui	a5,%hi(.LANCHOR0)
	lbu	t0,%lo(.LANCHOR0)(a5)
	.loc 1 414 13
	lui	a4,%hi(.LANCHOR3)
	addi	t1,a4,%lo(.LANCHOR3)
	.loc 1 414 24
	lw	a3,0(t1)
	.loc 1 413 24
	addi	t2,t0,-65
	seqz	a0,t2
	.loc 1 414 24
	or	a1,a0,a3
	.loc 1 415 13
	lui	a2,%hi(.LANCHOR4)
	li	a6,66
	.loc 1 414 13
	sw	a1,0(t1)
	.loc 1 415 3 is_stmt 1
	.loc 1 415 13 is_stmt 0
	sb	a6,%lo(.LANCHOR4)(a2)
	.loc 1 416 1
	ret
	.cfi_endproc
.LFE8:
	.size	Proc_4, .-Proc_4
	.section	.text.Proc_5,"ax",@progbits
	.align	1
	.align	2
	.globl	Proc_5
	.type	Proc_5, @function
Proc_5:
.LFB9:
	.loc 1 422 1 is_stmt 1
	.cfi_startproc
	.loc 1 423 3
	.loc 1 423 13 is_stmt 0
	lui	a5,%hi(.LANCHOR0)
	li	a4,65
	.loc 1 424 13
	lui	t0,%hi(.LANCHOR3)
	.loc 1 423 13
	sb	a4,%lo(.LANCHOR0)(a5)
	.loc 1 424 3 is_stmt 1
	.loc 1 424 13 is_stmt 0
	sw	zero,%lo(.LANCHOR3)(t0)
	.loc 1 425 1
	ret
	.cfi_endproc
.LFE9:
	.size	Proc_5, .-Proc_5
	.section	.rodata.main.str1.4,"aMS",@progbits,1
	.align	2
.LC0:
	.string	"DHRYSTONE PROGRAM, SOME STRING"
	.align	2
.LC2:
	.string	"\n"
	.align	2
.LC3:
	.string	"Dhrystone Benchmark, Version 2.1 (Language: C)\n"
	.align	2
.LC4:
	.string	"Program compiled with 'register' attribute\n"
	.align	2
.LC5:
	.string	"Program compiled without 'register' attribute\n"
	.align	2
.LC6:
	.string	"Please give the number of runs through the benchmark: "
	.align	2
.LC7:
	.string	"Just turn on the cycles since this benchmark need to use counter to measure performance"
	.align	2
.LC8:
	.string	"Execution starts, %d runs through Dhrystone\n"
	.align	2
.LC11:
	.string	"Execution ends\n"
	.align	2
.LC12:
	.string	"Final values of the variables used in the benchmark:\n"
	.align	2
.LC13:
	.string	"Int_Glob:            %d\n"
	.align	2
.LC14:
	.string	"        should be:   %d\n"
	.align	2
.LC15:
	.string	"Bool_Glob:           %d\n"
	.align	2
.LC16:
	.string	"Ch_1_Glob:           %c\n"
	.align	2
.LC17:
	.string	"        should be:   %c\n"
	.align	2
.LC18:
	.string	"Ch_2_Glob:           %c\n"
	.align	2
.LC19:
	.string	"Arr_1_Glob[8]:       %d\n"
	.align	2
.LC20:
	.string	"Arr_2_Glob[8][7]:    %d\n"
	.align	2
.LC21:
	.string	"        should be:   Number_Of_Runs + 10\n"
	.align	2
.LC22:
	.string	"Ptr_Glob->\n"
	.align	2
.LC23:
	.string	"  Ptr_Comp:          %d\n"
	.align	2
.LC24:
	.string	"        should be:   (implementation-dependent)\n"
	.align	2
.LC25:
	.string	"  Discr:             %d\n"
	.align	2
.LC26:
	.string	"  Enum_Comp:         %d\n"
	.align	2
.LC27:
	.string	"  Int_Comp:          %d\n"
	.align	2
.LC28:
	.string	"  Str_Comp:          %s\n"
	.align	2
.LC29:
	.string	"        should be:   DHRYSTONE PROGRAM, SOME STRING\n"
	.align	2
.LC30:
	.string	"Next_Ptr_Glob->\n"
	.align	2
.LC31:
	.string	"        should be:   (implementation-dependent), same as above\n"
	.align	2
.LC32:
	.string	"Int_1_Loc:           %d\n"
	.align	2
.LC33:
	.string	"Int_2_Loc:           %d\n"
	.align	2
.LC34:
	.string	"Int_3_Loc:           %d\n"
	.align	2
.LC35:
	.string	"Enum_Loc:            %d\n"
	.align	2
.LC36:
	.string	"Str_1_Loc:           %s\n"
	.align	2
.LC37:
	.string	"        should be:   DHRYSTONE PROGRAM, 1'ST STRING\n"
	.align	2
.LC38:
	.string	"Str_2_Loc:           %s\n"
	.align	2
.LC39:
	.string	"        should be:   DHRYSTONE PROGRAM, 2'ND STRING\n"
	.align	2
.LC40:
	.string	"Measured time too small to obtain meaningful results\n"
	.align	2
.LC41:
	.string	"Please increase number of runs\n"
	.globl	__floatsisf
	.globl	__mulsf3
	.globl	__divsf3
	.align	2
.LC45:
	.string	" (*) User_Cycle for total run through Dhrystone with loops %d: \n"
	.align	2
.LC46:
	.string	"%ld \n"
	.align	2
.LC47:
	.string	"       So the DMIPS/MHz can be caculated by: \n"
	.globl	__extendsfdf2
	.align	2
.LC48:
	.string	"       1000000/(User_Cycle/Number_Of_Runs)/1757 = %2.6f DMIPS/MHz\n"
	.align	2
.LC1:
	.string	"DHRYSTONE PROGRAM, 1'ST STRING"
	.align	2
.LC9:
	.string	"DHRYSTONE PROGRAM, 2'ND STRING"
	.align	2
.LC10:
	.string	"DHRYSTONE PROGRAM, 3'RD STRING"
	.section	.text.startup.main,"ax",@progbits
	.align	1
	.align	2
	.globl	main
	.type	main, @function
main:
.LFB4:
	.loc 1 83 1 is_stmt 1
	.cfi_startproc
	.loc 1 84 9
	.loc 1 85 3
	.loc 1 86 9
	.loc 1 87 3
	.loc 1 88 9
	.loc 1 89 9
	.loc 1 90 9
	.loc 1 91 3
	.loc 1 92 3
	.loc 1 96 3
	.loc 1 83 1 is_stmt 0
	addi	sp,sp,-160
	.cfi_def_cfa_offset 160
	.loc 1 96 33
	li	a0,48
	.loc 1 83 1
	sw	ra,156(sp)
	sw	s0,152(sp)
	sw	s1,148(sp)
	sw	s2,144(sp)
	sw	s3,140(sp)
	sw	s4,136(sp)
	sw	s5,132(sp)
	sw	s6,128(sp)
	sw	s7,124(sp)
	sw	s8,120(sp)
	sw	s9,116(sp)
	sw	s10,112(sp)
	sw	s11,108(sp)
	.cfi_offset 1, -4
	.cfi_offset 8, -8
	.cfi_offset 9, -12
	.cfi_offset 18, -16
	.cfi_offset 19, -20
	.cfi_offset 20, -24
	.cfi_offset 21, -28
	.cfi_offset 22, -32
	.cfi_offset 23, -36
	.cfi_offset 24, -40
	.cfi_offset 25, -44
	.cfi_offset 26, -48
	.cfi_offset 27, -52
	.loc 1 96 33
	call	malloc
.LVL23:
	.loc 1 96 17
	lui	a5,%hi(.LANCHOR5)
	addi	t0,a5,%lo(.LANCHOR5)
	.loc 1 96 33
	mv	s0,a0
	.loc 1 97 28
	li	a0,48
	.loc 1 96 17
	sw	s0,0(t0)
	.loc 1 97 3 is_stmt 1
	.loc 1 96 17 is_stmt 0
	sw	t0,0(sp)
	.loc 1 97 28
	call	malloc
.LVL24:
	.loc 1 103 3
	lui	t1,%hi(.LC0)
	.loc 1 105 3
	lui	a4,%hi(.LC1)
	.loc 1 103 3
	addi	s1,t1,%lo(.LC0)
	.loc 1 105 3
	addi	s2,a4,%lo(.LC1)
	.loc 1 103 3
	lw	t2,0(s1)
	lw	t5,4(s1)
	lw	t4,8(s1)
	lw	t3,12(s1)
	lw	a7,20(s1)
	lw	a6,24(s1)
	lhu	a1,28(s1)
	lbu	a2,30(s1)
	.loc 1 105 3
	lw	t6,4(s2)
	.loc 1 103 3
	lw	s3,16(s1)
	.loc 1 105 3
	lw	s4,0(s2)
	lw	a3,8(s2)
	.loc 1 97 12
	lui	s9,%hi(.LANCHOR2)
	.loc 1 99 22
	sw	s0,0(a0)
	.loc 1 97 28
	mv	s5,a0
	.loc 1 100 19
	sw	zero,4(a0)
	.loc 1 102 36
	li	s6,40
	.loc 1 101 37
	li	a0,2
	.loc 1 97 12
	addi	s9,s9,%lo(.LANCHOR2)
	.loc 1 103 3
	sw	t2,16(s5)
	sw	t5,20(s5)
	.loc 1 105 3
	sw	t6,36(sp)
	.loc 1 103 3
	sw	t4,24(s5)
	sw	t3,28(s5)
	sw	a7,36(s5)
	sw	a6,40(s5)
	sh	a1,44(s5)
	sb	a2,46(s5)
	.loc 1 101 37
	sw	a0,8(s5)
	.loc 1 102 36
	sw	s6,12(s5)
	.loc 1 97 12
	sw	s5,0(s9)
	.loc 1 99 3 is_stmt 1
	.loc 1 100 3
	.loc 1 101 3
	.loc 1 102 3
	.loc 1 103 3
	.loc 1 105 3
	sw	s4,32(sp)
	.loc 1 103 3 is_stmt 0
	sw	s3,32(s5)
	.loc 1 105 3
	lw	t0,24(s2)
	lw	s7,12(s2)
	lw	s8,16(s2)
	lw	s10,20(s2)
	sw	a3,40(sp)
	lhu	t1,28(s2)
	lbu	a5,30(s2)
	.loc 1 113 3
	lui	s0,%hi(.LC2)
	.loc 1 107 21
	lui	s11,%hi(Arr_2_Glob)
	addi	a4,s11,%lo(Arr_2_Glob)
	.loc 1 113 3
	addi	a0,s0,%lo(.LC2)
	.loc 1 107 21
	li	s1,10
	.loc 1 105 3
	sw	t0,56(sp)
	sh	t1,60(sp)
	sb	a5,62(sp)
	.loc 1 107 3 is_stmt 1
	.loc 1 107 21 is_stmt 0
	sw	s1,1628(a4)
	.loc 1 113 3 is_stmt 1
	.loc 1 105 3 is_stmt 0
	sw	s7,44(sp)
	sw	s8,48(sp)
	sw	s10,52(sp)
	.loc 1 114 3
	lui	s2,%hi(.LC3)
	.loc 1 113 3
	call	printf
.LVL25:
	.loc 1 114 3 is_stmt 1
	addi	a0,s2,%lo(.LC3)
	call	printf
.LVL26:
	.loc 1 115 3
	addi	a0,s0,%lo(.LC2)
	call	printf
.LVL27:
	.loc 1 116 3
	.loc 1 116 7 is_stmt 0
	lui	t2,%hi(.LANCHOR6)
	.loc 1 116 6
	lw	t5,%lo(.LANCHOR6)(t2)
	beqz	t5,.L17
	.loc 1 118 5 is_stmt 1
	lui	t3,%hi(.LC4)
	addi	a0,t3,%lo(.LC4)
	call	printf
.LVL28:
	.loc 1 119 5
	addi	a0,s0,%lo(.LC2)
	call	printf
.LVL29:
.L18:
	.loc 1 126 3
	lui	s3,%hi(.LC6)
	addi	a0,s3,%lo(.LC6)
	call	printf
.LVL30:
	.loc 1 128 5
	.loc 1 134 5
	.loc 1 137 3
	lui	a7,%hi(.LC2)
	addi	a0,a7,%lo(.LC2)
	call	printf
.LVL31:
	.loc 1 140 3
	lui	a6,%hi(.LC7)
	addi	a0,a6,%lo(.LC7)
	call	printf
.LVL32:
	.loc 1 141 3
	call	enable_mcycle_minstret
.LVL33:
	.loc 1 144 3
	lui	a2,%hi(.LC8)
	li	a1,159744
	addi	a1,a1,256
	addi	a0,a2,%lo(.LC8)
	call	printf
.LVL34:
	.loc 1 156 3
	.loc 1 156 16 is_stmt 0
	li	a0,0
	call	time
.LVL35:
	.loc 1 156 14
	lui	t6,%hi(.LANCHOR7)
	addi	s5,t6,%lo(.LANCHOR7)
	.loc 1 156 16
	mv	s4,a0
	.loc 1 158 19
	li	a0,0
	.loc 1 156 14
	sw	s4,0(s5)
	.loc 1 158 3 is_stmt 1
	.loc 1 156 14 is_stmt 0
	sw	s5,4(sp)
	.loc 1 158 19
	call	csr_instret
.LVL36:
	mv	a3,a0
	.loc 1 158 17
	lui	a0,%hi(.LANCHOR8)
	addi	s6,a0,%lo(.LANCHOR8)
	.loc 1 159 17
	li	a0,0
	.loc 1 158 17
	sw	s6,8(sp)
	sw	a3,0(s6)
	.loc 1 159 3 is_stmt 1
	.loc 1 159 15 is_stmt 0
	lui	s7,%hi(.LANCHOR9)
	.loc 1 159 17
	call	csr_cycle
.LVL37:
	.loc 1 159 15
	addi	s8,s7,%lo(.LANCHOR9)
	lui	s10,%hi(.LC9)
	lui	t0,%hi(.LANCHOR3)
	lui	t1,%hi(.LANCHOR4)
	lui	a5,%hi(.LANCHOR1)
.LBB6:
.LBB7:
	.loc 1 192 9
	lui	s0,%hi(.LC10)
.LBE7:
.LBE6:
	.loc 1 159 15
	sw	s8,12(sp)
	sw	a0,0(s8)
	.loc 1 161 3 is_stmt 1
.LVL38:
	.loc 1 161 23
	addi	s3,s10,%lo(.LC9)
	.loc 1 161 18 is_stmt 0
	li	s4,1
	addi	s10,t0,%lo(.LANCHOR3)
	addi	s2,t1,%lo(.LANCHOR4)
	addi	s8,a5,%lo(.LANCHOR1)
.LBB12:
	.loc 1 167 15
	li	s1,2
.LBB8:
	.loc 1 192 9
	addi	s0,s0,%lo(.LC10)
.LVL39:
	.align	2
.L26:
.LBE8:
	.loc 1 164 5 is_stmt 1
	call	Proc_5
.LVL40:
	.loc 1 165 5
	call	Proc_4
.LVL41:
	.loc 1 167 5
	.loc 1 169 5 is_stmt 0
	lw	t2,0(s3)
	lw	t5,4(s3)
	lw	t4,8(s3)
	lw	t3,12(s3)
	lw	a7,16(s3)
	lw	a6,20(s3)
	lw	a2,24(s3)
	lhu	a4,28(s3)
	lbu	t6,30(s3)
	.loc 1 171 19
	addi	a1,sp,64
	addi	a0,sp,32
	.loc 1 170 14
	li	s5,1
	.loc 1 167 15
	sw	s1,20(sp)
	.loc 1 168 5 is_stmt 1
.LVL42:
	.loc 1 169 5
	sw	t2,64(sp)
	sw	t5,68(sp)
	sw	t4,72(sp)
	sw	t3,76(sp)
	sw	a7,80(sp)
	sw	a6,84(sp)
	sw	a2,88(sp)
	sh	a4,92(sp)
	sb	t6,94(sp)
	.loc 1 170 5
	.loc 1 170 14 is_stmt 0
	sw	s5,28(sp)
	.loc 1 171 5 is_stmt 1
	.loc 1 171 19 is_stmt 0
	call	Func_2
.LVL43:
	mv	a1,a0
	.loc 1 173 22
	lw	a0,20(sp)
	.loc 1 171 17
	seqz	a3,a1
	.loc 1 171 15
	sw	a3,0(s10)
	.loc 1 173 5 is_stmt 1
	.loc 1 173 11
	bgt	a0,s1,.L19
	.align	2
.L20:
.LBB9:
	.loc 1 175 7
	.loc 1 175 21 is_stmt 0
	slli	ra,a0,2
	add	s6,ra,a0
	.loc 1 175 33
	addi	s7,s6,-3
	.loc 1 177 7
	addi	a2,sp,24
	li	a1,3
	.loc 1 175 17
	sw	s7,24(sp)
	.loc 1 177 7 is_stmt 1
	call	Proc_7
.LVL44:
	.loc 1 179 7
	.loc 1 179 17 is_stmt 0
	lw	a0,20(sp)
	addi	a0,a0,1
	sw	a0,20(sp)
.LBE9:
	.loc 1 173 11 is_stmt 1
	ble	a0,s1,.L20
.L19:
	.loc 1 182 5
	lw	a3,24(sp)
	lui	t0,%hi(.LANCHOR10)
	mv	a2,a0
	addi	a1,s11,%lo(Arr_2_Glob)
	addi	a0,t0,%lo(.LANCHOR10)
	call	Proc_8
.LVL45:
	.loc 1 184 5
	lw	a0,0(s9)
	call	Proc_1
.LVL46:
	.loc 1 185 5
	.loc 1 185 26
	.loc 1 185 5 is_stmt 0
	lbu	t1,0(s2)
	li	a5,64
	bleu	t1,a5,.L29
	.loc 1 185 19
	li	s5,65
	.loc 1 168 15
	li	s6,3
.LVL47:
	.align	2
.L25:
	.loc 1 188 7 is_stmt 1
	.loc 1 188 23 is_stmt 0
	mv	a0,s5
	li	a1,67
	call	Func_1
.LVL48:
	.loc 1 185 49 is_stmt 1
	.loc 1 188 10 is_stmt 0
	lw	t2,28(sp)
	.loc 1 185 49
	addi	t5,s5,1
	.loc 1 188 10
	beq	a0,t2,.L34
	.loc 1 185 5 discriminator 2
	lbu	t4,0(s2)
	.loc 1 185 49 discriminator 2
	andi	s5,t5,0xff
.LVL49:
	.loc 1 185 26 is_stmt 1 discriminator 2
	.loc 1 185 5 is_stmt 0 discriminator 2
	bgeu	t4,s5,.L25
.LVL50:
.L21:
	.loc 1 198 5 is_stmt 1 discriminator 2
	.loc 1 198 15 is_stmt 0 discriminator 2
	lw	ra,20(sp)
	.loc 1 199 27 discriminator 2
	lw	s7,24(sp)
	.loc 1 202 5 discriminator 2
	addi	a0,sp,20
	.loc 1 198 15 discriminator 2
	mul	s6,s6,ra
.LVL51:
	.loc 1 199 5 is_stmt 1 discriminator 2
.LBE12:
	.loc 1 161 52 is_stmt 0 discriminator 2
	addi	s4,s4,1
.LVL52:
.LBB13:
	.loc 1 199 27 discriminator 2
	div	s5,s6,s7
	.loc 1 199 15 discriminator 2
	sw	s5,20(sp)
	.loc 1 200 5 is_stmt 1 discriminator 2
.LVL53:
	.loc 1 202 5 discriminator 2
	call	Proc_2
.LVL54:
.LBE13:
	.loc 1 161 52 discriminator 2
	.loc 1 161 23 discriminator 2
	.loc 1 161 3 is_stmt 0 discriminator 2
	li	t1,159744
	addi	a5,t1,257
	bne	s4,a5,.L26
	.loc 1 210 3 is_stmt 1
	.loc 1 210 15 is_stmt 0
	li	a0,0
	call	csr_cycle
.LVL55:
	mv	s11,s6
	.loc 1 210 13
	lui	s1,%hi(.LANCHOR11)
	mv	s6,s5
.LVL56:
	.loc 1 210 15
	mv	s3,a0
	mv	s5,s11
.LVL57:
	.loc 1 217 14
	li	a0,0
	.loc 1 210 13
	addi	s11,s1,%lo(.LANCHOR11)
.LVL58:
	sw	s3,0(s11)
	.loc 1 217 3 is_stmt 1
	.loc 1 217 14 is_stmt 0
	call	time
.LVL59:
	.loc 1 219 3 is_stmt 1
	.loc 1 217 12 is_stmt 0
	lui	t2,%hi(.LANCHOR12)
	addi	t5,t2,%lo(.LANCHOR12)
	.loc 1 217 14
	mv	s0,a0
	.loc 1 219 17
	li	a0,0
	.loc 1 217 12
	sw	s0,0(t5)
	.loc 1 219 17
	call	csr_instret
.LVL60:
	.loc 1 221 3 is_stmt 1
	lui	a7,%hi(.LC11)
	.loc 1 219 15 is_stmt 0
	lui	t3,%hi(.LANCHOR13)
	addi	t6,t3,%lo(.LANCHOR13)
	.loc 1 219 17
	mv	t4,a0
	.loc 1 221 3
	addi	a0,a7,%lo(.LC11)
	.loc 1 219 15
	sw	t4,0(t6)
	.loc 1 222 3
	lui	s4,%hi(.LC2)
.LVL61:
	.loc 1 221 3
	call	printf
.LVL62:
	.loc 1 222 3 is_stmt 1
	addi	a0,s4,%lo(.LC2)
	call	printf
.LVL63:
	.loc 1 223 3
	lui	a6,%hi(.LC12)
	addi	a0,a6,%lo(.LC12)
	call	printf
.LVL64:
	.loc 1 224 3
	addi	a0,s4,%lo(.LC2)
	call	printf
.LVL65:
	.loc 1 225 3
	lw	a1,0(s8)
	lui	s8,%hi(.LC13)
	addi	a0,s8,%lo(.LC13)
	call	printf
.LVL66:
	.loc 1 226 3
	lui	s0,%hi(.LC14)
	li	a1,5
	addi	a0,s0,%lo(.LC14)
	call	printf
.LVL67:
	.loc 1 227 3
	lw	a1,0(s10)
	lui	s10,%hi(.LC15)
	addi	a0,s10,%lo(.LC15)
	call	printf
.LVL68:
	.loc 1 228 3
	li	a1,1
	addi	a0,s0,%lo(.LC14)
	call	printf
.LVL69:
	.loc 1 229 3
	lui	a1,%hi(.LANCHOR0)
	lbu	a1,%lo(.LANCHOR0)(a1)
	lui	a2,%hi(.LC16)
	addi	a0,a2,%lo(.LC16)
	call	printf
.LVL70:
	.loc 1 230 3
	lui	s3,%hi(.LC17)
	li	a1,65
	addi	a0,s3,%lo(.LC17)
	call	printf
.LVL71:
	.loc 1 231 3
	lbu	a1,0(s2)
	lui	s2,%hi(.LC18)
	addi	a0,s2,%lo(.LC18)
	call	printf
.LVL72:
	.loc 1 232 3
	li	a1,66
	addi	a0,s3,%lo(.LC17)
	call	printf
.LVL73:
	.loc 1 233 3
	lui	a3,%hi(.LANCHOR10)
	addi	a4,a3,%lo(.LANCHOR10)
	lw	a1,32(a4)
	lui	a0,%hi(.LC19)
	addi	a0,a0,%lo(.LC19)
	call	printf
.LVL74:
	.loc 1 234 3
	li	a1,7
	addi	a0,s0,%lo(.LC14)
	call	printf
.LVL75:
	.loc 1 235 3
	lui	t0,%hi(Arr_2_Glob)
	addi	t1,t0,%lo(Arr_2_Glob)
	lw	a1,1628(t1)
	lui	a5,%hi(.LC20)
	addi	a0,a5,%lo(.LC20)
	call	printf
.LVL76:
	.loc 1 236 3
	lui	s1,%hi(.LC21)
	addi	a0,s1,%lo(.LC21)
	call	printf
.LVL77:
	.loc 1 237 3
	lui	t2,%hi(.LC22)
	addi	a0,t2,%lo(.LC22)
	call	printf
.LVL78:
	.loc 1 238 3
	.loc 1 238 54 is_stmt 0
	lw	t5,0(s9)
	.loc 1 238 3
	lui	s10,%hi(.LC23)
	addi	a0,s10,%lo(.LC23)
	lw	a1,0(t5)
	.loc 1 240 3
	lui	s8,%hi(.LC25)
	.loc 1 242 3
	lui	s4,%hi(.LC26)
	.loc 1 238 3
	call	printf
.LVL79:
	.loc 1 239 3 is_stmt 1
	lui	t4,%hi(.LC24)
	addi	a0,t4,%lo(.LC24)
	call	printf
.LVL80:
	.loc 1 240 3
	lw	t3,0(s9)
	addi	a0,s8,%lo(.LC25)
	.loc 1 244 3 is_stmt 0
	lui	s3,%hi(.LC27)
	.loc 1 240 3
	lw	a1,4(t3)
	.loc 1 246 3
	lui	s2,%hi(.LC28)
	.loc 1 247 3
	lui	s1,%hi(.LC29)
	.loc 1 240 3
	call	printf
.LVL81:
	.loc 1 241 3 is_stmt 1
	li	a1,0
	addi	a0,s0,%lo(.LC14)
	call	printf
.LVL82:
	.loc 1 242 3
	lw	t6,0(s9)
	addi	a0,s4,%lo(.LC26)
.LBB14:
	.loc 1 200 32 is_stmt 0
	sub	s7,s5,s7
.LVL83:
.LBE14:
	.loc 1 242 3
	lw	a1,8(t6)
.LBB15:
	.loc 1 200 19
	slli	s5,s7,3
.LBE15:
	.loc 1 242 3
	call	printf
.LVL84:
	.loc 1 243 3 is_stmt 1
	li	a1,2
	addi	a0,s0,%lo(.LC14)
	call	printf
.LVL85:
	.loc 1 244 3
	lw	a7,0(s9)
	addi	a0,s3,%lo(.LC27)
	lw	a1,12(a7)
	call	printf
.LVL86:
	.loc 1 245 3
	li	a1,17
	addi	a0,s0,%lo(.LC14)
	call	printf
.LVL87:
	.loc 1 246 3
	.loc 1 246 63 is_stmt 0
	lw	s9,0(s9)
	.loc 1 246 3
	addi	a0,s2,%lo(.LC28)
	addi	a1,s9,16
	call	printf
.LVL88:
	.loc 1 247 3 is_stmt 1
	addi	a0,s1,%lo(.LC29)
	call	printf
.LVL89:
	.loc 1 248 3
	lui	a6,%hi(.LC30)
	addi	a0,a6,%lo(.LC30)
	call	printf
.LVL90:
	.loc 1 249 3
	.loc 1 249 59 is_stmt 0
	lw	s9,0(sp)
	.loc 1 249 3
	addi	a0,s10,%lo(.LC23)
	.loc 1 269 3
	lui	s10,%hi(.LC37)
	.loc 1 249 59
	lw	a1,0(s9)
	.loc 1 249 3
	lw	a1,0(a1)
	call	printf
.LVL91:
	.loc 1 250 3 is_stmt 1
	lui	a2,%hi(.LC31)
	addi	a0,a2,%lo(.LC31)
	call	printf
.LVL92:
	.loc 1 251 3
	lw	a3,0(s9)
	addi	a0,s8,%lo(.LC25)
	.loc 1 270 3 is_stmt 0
	lui	s8,%hi(.LC38)
	.loc 1 251 3
	lw	a1,4(a3)
	call	printf
.LVL93:
	.loc 1 252 3 is_stmt 1
	li	a1,0
	addi	a0,s0,%lo(.LC14)
	call	printf
.LVL94:
	.loc 1 253 3
	lw	a4,0(s9)
	addi	a0,s4,%lo(.LC26)
	.loc 1 271 3 is_stmt 0
	lui	s4,%hi(.LC39)
	.loc 1 253 3
	lw	a1,8(a4)
	call	printf
.LVL95:
	.loc 1 254 3 is_stmt 1
	li	a1,1
	addi	a0,s0,%lo(.LC14)
	call	printf
.LVL96:
	.loc 1 255 3
	lw	t0,0(s9)
	addi	a0,s3,%lo(.LC27)
	.loc 1 272 3 is_stmt 0
	lui	s3,%hi(.LC2)
	.loc 1 255 3
	lw	a1,12(t0)
	call	printf
.LVL97:
	.loc 1 256 3 is_stmt 1
	li	a1,18
	addi	a0,s0,%lo(.LC14)
	call	printf
.LVL98:
	.loc 1 257 3
	.loc 1 258 61 is_stmt 0
	lw	t1,0(s9)
	.loc 1 257 3
	addi	a0,s2,%lo(.LC28)
	addi	a1,t1,16
	call	printf
.LVL99:
	.loc 1 259 3 is_stmt 1
	addi	a0,s1,%lo(.LC29)
	call	printf
.LVL100:
	.loc 1 260 3
	lw	a1,20(sp)
	lui	a0,%hi(.LC32)
	addi	a0,a0,%lo(.LC32)
	call	printf
.LVL101:
	.loc 1 261 3
	li	a1,5
	addi	a0,s0,%lo(.LC14)
	call	printf
.LVL102:
	.loc 1 262 3
.LBB16:
	.loc 1 200 19 is_stmt 0
	sub	a5,s5,s7
.LBE16:
	.loc 1 262 3
	sub	a1,a5,s6
	lui	s6,%hi(.LC33)
	addi	a0,s6,%lo(.LC33)
	call	printf
.LVL103:
	.loc 1 263 3 is_stmt 1
	li	a1,13
	addi	a0,s0,%lo(.LC14)
	call	printf
.LVL104:
	.loc 1 264 3
	lw	a1,24(sp)
	lui	t2,%hi(.LC34)
	addi	a0,t2,%lo(.LC34)
	call	printf
.LVL105:
	.loc 1 265 3
	li	a1,7
	addi	a0,s0,%lo(.LC14)
	call	printf
.LVL106:
	.loc 1 266 3
	lw	a1,28(sp)
	lui	t5,%hi(.LC35)
	addi	a0,t5,%lo(.LC35)
	call	printf
.LVL107:
	.loc 1 267 3
	li	a1,1
	addi	a0,s0,%lo(.LC14)
	call	printf
.LVL108:
	.loc 1 268 3
	lui	s0,%hi(.LC36)
	addi	a1,sp,32
	addi	a0,s0,%lo(.LC36)
	call	printf
.LVL109:
	.loc 1 269 3
	addi	a0,s10,%lo(.LC37)
	call	printf
.LVL110:
	.loc 1 270 3
	addi	a1,sp,64
	addi	a0,s8,%lo(.LC38)
	call	printf
.LVL111:
	.loc 1 271 3
	addi	a0,s4,%lo(.LC39)
	call	printf
.LVL112:
	.loc 1 272 3
	addi	a0,s3,%lo(.LC2)
	call	printf
.LVL113:
	.loc 1 274 3
	.loc 1 275 30 is_stmt 0
	lw	a1,8(sp)
	.loc 1 274 24
	lw	s1,4(sp)
	.loc 1 276 26
	lw	a3,12(sp)
	.loc 1 274 24
	lui	t4,%hi(.LANCHOR12)
	.loc 1 275 30
	lui	a7,%hi(.LANCHOR13)
	.loc 1 274 24
	addi	t3,t4,%lo(.LANCHOR12)
	.loc 1 275 30
	addi	a6,a7,%lo(.LANCHOR13)
	.loc 1 274 24
	lw	s2,0(t3)
	lw	t6,0(s1)
	.loc 1 275 30
	lw	s9,0(a6)
	lw	a2,0(a1)
	.loc 1 276 26
	lw	s11,0(s11)
	lw	a4,0(a3)
	.loc 1 276 14
	lui	t0,%hi(.LANCHOR16)
	.loc 1 274 24
	sub	a0,s2,t6
	.loc 1 275 30
	sub	s0,s9,a2
	.loc 1 276 26
	sub	s10,s11,a4
	.loc 1 276 14
	addi	s8,t0,%lo(.LANCHOR16)
	.loc 1 274 13
	lui	t1,%hi(.LANCHOR14)
	.loc 1 275 16
	lui	s7,%hi(.LANCHOR15)
	.loc 1 274 13
	sw	a0,%lo(.LANCHOR14)(t1)
	.loc 1 275 3 is_stmt 1
	.loc 1 275 16 is_stmt 0
	sw	s0,%lo(.LANCHOR15)(s7)
	.loc 1 276 3 is_stmt 1
	.loc 1 276 14 is_stmt 0
	sw	s10,0(s8)
	.loc 1 281 3 is_stmt 1
	.loc 1 281 6 is_stmt 0
	li	s5,1
	ble	a0,s5,.L35
	.loc 1 291 5 is_stmt 1
	.loc 1 291 20 is_stmt 0
	call	__floatsisf
.LVL114:
	.loc 1 291 38
	lui	s6,%hi(.LC42)
	lw	a1,%lo(.LC42)(s6)
	.loc 1 292 25
	lui	s3,%hi(.LC43)
	.loc 1 291 20
	mv	s4,a0
	.loc 1 291 38
	call	__mulsf3
.LVL115:
	.loc 1 292 25
	lw	a1,%lo(.LC43)(s3)
	.loc 1 300 28
	li	a5,159744
	addi	s9,a5,256
	.loc 1 292 25
	call	__divsf3
.LVL116:
	mv	t2,a0
	.loc 1 293 52
	lw	a0,%lo(.LC43)(s3)
	.loc 1 291 18
	lui	s2,%hi(.LANCHOR17)
	sw	t2,%lo(.LANCHOR17)(s2)
	.loc 1 293 5 is_stmt 1
	.loc 1 293 52 is_stmt 0
	mv	a1,s4
	call	__divsf3
.LVL117:
	.loc 1 300 28
	div	t5,s0,s9
	.loc 1 300 13
	lui	t3,%hi(.LANCHOR19)
	.loc 1 293 27
	lui	s1,%hi(.LANCHOR18)
	.loc 1 310 15
	lui	t4,%hi(.LANCHOR20)
	.loc 1 293 27
	sw	a0,%lo(.LANCHOR18)(s1)
	.loc 1 300 5 is_stmt 1
	.loc 1 310 27 is_stmt 0
	mv	a0,s10
	.loc 1 310 15
	addi	s11,t4,%lo(.LANCHOR20)
	.loc 1 300 13
	sw	t5,%lo(.LANCHOR19)(t3)
	.loc 1 310 5 is_stmt 1
	.loc 1 310 27 is_stmt 0
	call	__floatsisf
.LVL118:
	.loc 1 310 44
	lw	a1,%lo(.LC43)(s3)
	call	__divsf3
.LVL119:
	mv	a1,a0
	.loc 1 310 25
	lw	a0,%lo(.LC42)(s6)
	call	__divsf3
.LVL120:
	.loc 1 310 68
	lui	t6,%hi(.LC44)
	lw	a1,%lo(.LC44)(t6)
	call	__divsf3
.LVL121:
	mv	a7,a0
	.loc 1 314 5
	lui	a0,%hi(.LC45)
	mv	a1,s9
	addi	a0,a0,%lo(.LC45)
	.loc 1 310 15
	sw	a7,0(s11)
	.loc 1 314 5 is_stmt 1
	call	printf
.LVL122:
	.loc 1 315 5
	lw	a1,0(s8)
	lui	a6,%hi(.LC46)
	addi	a0,a6,%lo(.LC46)
	call	printf
.LVL123:
	.loc 1 327 5
	lui	a1,%hi(.LC47)
	addi	a0,a1,%lo(.LC47)
	call	printf
.LVL124:
	.loc 1 328 5
	lw	a0,0(s11)
	call	__extendsfdf2
.LVL125:
	lui	a4,%hi(.LC48)
	mv	a2,a0
	mv	a3,a1
	addi	a0,a4,%lo(.LC48)
	call	printf
.LVL126:
	.loc 1 329 5
	lui	a2,%hi(.LC2)
	addi	a0,a2,%lo(.LC2)
	call	printf
.LVL127:
.L28:
	.loc 1 332 1 is_stmt 0
	lw	ra,156(sp)
	.cfi_remember_state
	.cfi_restore 1
	lw	s0,152(sp)
	.cfi_restore 8
	lw	s1,148(sp)
	.cfi_restore 9
	lw	s2,144(sp)
	.cfi_restore 18
	lw	s3,140(sp)
	.cfi_restore 19
	lw	s4,136(sp)
	.cfi_restore 20
	lw	s5,132(sp)
	.cfi_restore 21
	lw	s6,128(sp)
	.cfi_restore 22
	lw	s7,124(sp)
	.cfi_restore 23
	lw	s8,120(sp)
	.cfi_restore 24
	lw	s9,116(sp)
	.cfi_restore 25
	lw	s10,112(sp)
	.cfi_restore 26
	lw	s11,108(sp)
	.cfi_restore 27
	li	a0,0
	addi	sp,sp,160
	.cfi_def_cfa_offset 0
	jr	ra
.LVL128:
	.align	2
.L34:
	.cfi_restore_state
.LBB17:
.LBB10:
	.loc 1 191 9 is_stmt 1
	addi	a1,sp,28
	li	a0,0
	call	Proc_6
.LVL129:
	.loc 1 192 9
	lw	t3,0(s0)
	lw	t6,4(s0)
	lw	a7,8(s0)
	lw	a6,12(s0)
	lw	s7,16(s0)
	lw	a1,20(s0)
	lw	a2,24(s0)
	lhu	a3,28(s0)
	lbu	a4,30(s0)
.LBE10:
	.loc 1 185 5 is_stmt 0
	lbu	a0,0(s2)
	.loc 1 185 49
	addi	t0,s5,1
.LBB11:
	.loc 1 192 9
	sw	t3,64(sp)
	sw	t6,68(sp)
	sw	a7,72(sp)
	sw	a6,76(sp)
	sw	s7,80(sp)
	sw	a1,84(sp)
	sw	a2,88(sp)
	sh	a3,92(sp)
	sb	a4,94(sp)
	.loc 1 193 9 is_stmt 1
.LVL130:
	.loc 1 194 9
	.loc 1 194 18 is_stmt 0
	sw	s4,0(s8)
.LBE11:
	.loc 1 185 49 is_stmt 1
	andi	s5,t0,0xff
.LVL131:
	.loc 1 185 26
	.loc 1 185 5 is_stmt 0
	mv	s6,s4
	bgeu	a0,s5,.L25
	j	.L21
.LVL132:
	.align	2
.L29:
	.loc 1 168 15
	li	s6,3
	j	.L21
.LVL133:
.L17:
.LBE17:
	.loc 1 123 5 is_stmt 1
	lui	ra,%hi(.LC5)
	addi	a0,ra,%lo(.LC5)
	call	printf
.LVL134:
	.loc 1 124 5
	lui	t4,%hi(.LC2)
	addi	a0,t4,%lo(.LC2)
	call	printf
.LVL135:
	j	.L18
.LVL136:
.L35:
	.loc 1 284 5
	lui	ra,%hi(.LC40)
	addi	a0,ra,%lo(.LC40)
	call	printf
.LVL137:
	.loc 1 285 5
	lui	a3,%hi(.LC41)
	addi	a0,a3,%lo(.LC41)
	call	printf
.LVL138:
	.loc 1 286 5
	addi	a0,s3,%lo(.LC2)
	call	printf
.LVL139:
	j	.L28
	.cfi_endproc
.LFE4:
	.size	main, .-main
	.globl	DMIPS_MHZ
	.globl	Dhrystones_Per_Second
	.globl	Microseconds
	.globl	User_Time
	.globl	End_Time
	.globl	Begin_Time
	.globl	Instret
	.globl	User_Instret
	.globl	End_Instret
	.globl	Begin_Instret
	.globl	User_Cycle
	.globl	End_Cycle
	.globl	Begin_Cycle
	.globl	Reg
	.globl	Arr_2_Glob
	.globl	Arr_1_Glob
	.globl	Ch_2_Glob
	.globl	Ch_1_Glob
	.globl	Bool_Glob
	.globl	Int_Glob
	.globl	Next_Ptr_Glob
	.globl	Ptr_Glob
	.section	.srodata.cst4,"aM",@progbits,4
	.align	2
.LC42:
	.word	1232348160
	.align	2
.LC43:
	.word	1209810944
	.align	2
.LC44:
	.word	1155244032
	.section	.bss.Arr_1_Glob,"aw",@nobits
	.align	2
	.set	.LANCHOR10,. + 0
	.type	Arr_1_Glob, @object
	.size	Arr_1_Glob, 200
Arr_1_Glob:
	.zero	200
	.section	.bss.Arr_2_Glob,"aw",@nobits
	.align	2
	.type	Arr_2_Glob, @object
	.size	Arr_2_Glob, 10000
Arr_2_Glob:
	.zero	10000
	.section	.sbss.Begin_Cycle,"aw",@nobits
	.align	2
	.set	.LANCHOR9,. + 0
	.type	Begin_Cycle, @object
	.size	Begin_Cycle, 4
Begin_Cycle:
	.zero	4
	.section	.sbss.Begin_Instret,"aw",@nobits
	.align	2
	.set	.LANCHOR8,. + 0
	.type	Begin_Instret, @object
	.size	Begin_Instret, 4
Begin_Instret:
	.zero	4
	.section	.sbss.Begin_Time,"aw",@nobits
	.align	2
	.set	.LANCHOR7,. + 0
	.type	Begin_Time, @object
	.size	Begin_Time, 4
Begin_Time:
	.zero	4
	.section	.sbss.Bool_Glob,"aw",@nobits
	.align	2
	.set	.LANCHOR3,. + 0
	.type	Bool_Glob, @object
	.size	Bool_Glob, 4
Bool_Glob:
	.zero	4
	.section	.sbss.Ch_1_Glob,"aw",@nobits
	.set	.LANCHOR0,. + 0
	.type	Ch_1_Glob, @object
	.size	Ch_1_Glob, 1
Ch_1_Glob:
	.zero	1
	.section	.sbss.Ch_2_Glob,"aw",@nobits
	.set	.LANCHOR4,. + 0
	.type	Ch_2_Glob, @object
	.size	Ch_2_Glob, 1
Ch_2_Glob:
	.zero	1
	.section	.sbss.DMIPS_MHZ,"aw",@nobits
	.align	2
	.set	.LANCHOR20,. + 0
	.type	DMIPS_MHZ, @object
	.size	DMIPS_MHZ, 4
DMIPS_MHZ:
	.zero	4
	.section	.sbss.Dhrystones_Per_Second,"aw",@nobits
	.align	2
	.set	.LANCHOR18,. + 0
	.type	Dhrystones_Per_Second, @object
	.size	Dhrystones_Per_Second, 4
Dhrystones_Per_Second:
	.zero	4
	.section	.sbss.End_Cycle,"aw",@nobits
	.align	2
	.set	.LANCHOR11,. + 0
	.type	End_Cycle, @object
	.size	End_Cycle, 4
End_Cycle:
	.zero	4
	.section	.sbss.End_Instret,"aw",@nobits
	.align	2
	.set	.LANCHOR13,. + 0
	.type	End_Instret, @object
	.size	End_Instret, 4
End_Instret:
	.zero	4
	.section	.sbss.End_Time,"aw",@nobits
	.align	2
	.set	.LANCHOR12,. + 0
	.type	End_Time, @object
	.size	End_Time, 4
End_Time:
	.zero	4
	.section	.sbss.Instret,"aw",@nobits
	.align	2
	.set	.LANCHOR19,. + 0
	.type	Instret, @object
	.size	Instret, 4
Instret:
	.zero	4
	.section	.sbss.Int_Glob,"aw",@nobits
	.align	2
	.set	.LANCHOR1,. + 0
	.type	Int_Glob, @object
	.size	Int_Glob, 4
Int_Glob:
	.zero	4
	.section	.sbss.Microseconds,"aw",@nobits
	.align	2
	.set	.LANCHOR17,. + 0
	.type	Microseconds, @object
	.size	Microseconds, 4
Microseconds:
	.zero	4
	.section	.sbss.Next_Ptr_Glob,"aw",@nobits
	.align	2
	.set	.LANCHOR5,. + 0
	.type	Next_Ptr_Glob, @object
	.size	Next_Ptr_Glob, 4
Next_Ptr_Glob:
	.zero	4
	.section	.sbss.Ptr_Glob,"aw",@nobits
	.align	2
	.set	.LANCHOR2,. + 0
	.type	Ptr_Glob, @object
	.size	Ptr_Glob, 4
Ptr_Glob:
	.zero	4
	.section	.sbss.Reg,"aw",@nobits
	.align	2
	.set	.LANCHOR6,. + 0
	.type	Reg, @object
	.size	Reg, 4
Reg:
	.zero	4
	.section	.sbss.User_Cycle,"aw",@nobits
	.align	2
	.set	.LANCHOR16,. + 0
	.type	User_Cycle, @object
	.size	User_Cycle, 4
User_Cycle:
	.zero	4
	.section	.sbss.User_Instret,"aw",@nobits
	.align	2
	.set	.LANCHOR15,. + 0
	.type	User_Instret, @object
	.size	User_Instret, 4
User_Instret:
	.zero	4
	.section	.sbss.User_Time,"aw",@nobits
	.align	2
	.set	.LANCHOR14,. + 0
	.type	User_Time, @object
	.size	User_Time, 4
User_Time:
	.zero	4
	.text
.Letext0:
	.file 2 "dhry.h"
	.file 3 "/home/ws/gnu-mcu-eclipse/riscv-none-gcc/rv_linux_bare_1910081810/riscv-nuclei-elf/include/sys/lock.h"
	.file 4 "/home/ws/gnu-mcu-eclipse/riscv-none-gcc/rv_linux_bare_1910081810/riscv-nuclei-elf/include/sys/_types.h"
	.file 5 "/home/ws/gnu-mcu-eclipse/riscv-none-gcc/rv_linux_bare_1910081810/lib/gcc/riscv-nuclei-elf/9.2.0/include/stddef.h"
	.file 6 "/home/ws/gnu-mcu-eclipse/riscv-none-gcc/rv_linux_bare_1910081810/riscv-nuclei-elf/include/sys/reent.h"
	.file 7 "/home/ws/gnu-mcu-eclipse/riscv-none-gcc/rv_linux_bare_1910081810/riscv-nuclei-elf/include/stdlib.h"
	.file 8 "/home/ws/gnu-mcu-eclipse/riscv-none-gcc/rv_linux_bare_1910081810/riscv-nuclei-elf/include/stdio.h"