	.file	"func.c"
	.option nopic
	.attribute arch, "rv32i2p0_m2p0_a2p0_c2p0"
	.attribute unaligned_access, 0
	.attribute stack_align, 16
	.text
.Ltext0:
	.cfi_sections	.debug_frame
	.section	.text.pmp_open_all_space,"ax",@progbits
	.align	1
	.align	2
	.globl	pmp_open_all_space
	.type	pmp_open_all_space, @function
pmp_open_all_space:
.LFB4:
	.file 1 "/home/ws/nucleisys-n-sdk/bsp/core/drivers/func.c"
	.loc 1 12 26
	.cfi_startproc
	.loc 1 14 5
 #APP
# 14 "/home/ws/nucleisys-n-sdk/bsp/core/drivers/func.c" 1
	li x6, 0xffffffff
# 0 "" 2
	.loc 1 15 5
# 15 "/home/ws/nucleisys-n-sdk/bsp/core/drivers/func.c" 1
	csrw pmpaddr0, x6
# 0 "" 2
	.loc 1 17 5
# 17 "/home/ws/nucleisys-n-sdk/bsp/core/drivers/func.c" 1
	li x6, 0x7f
# 0 "" 2
	.loc 1 18 5
# 18 "/home/ws/nucleisys-n-sdk/bsp/core/drivers/func.c" 1
	csrw pmpcfg0, x6
# 0 "" 2
	.loc 1 19 1 is_stmt 0
 #NO_APP
	ret
	.cfi_endproc
.LFE4:
	.size	pmp_open_all_space, .-pmp_open_all_space
	.section	.text.switch_m2u_mode,"ax",@progbits
	.align	1
	.align	2
	.globl	switch_m2u_mode
	.type	switch_m2u_mode, @function
switch_m2u_mode:
.LFB5:
	.loc 1 21 23 is_stmt 1
	.cfi_startproc
	.loc 1 22 5
.LBB2:
	.loc 1 22 8
	.loc 1 22 29
	.loc 1 22 186
	li	a5,8192
	addi	t0,a5,-2048
 #APP
# 22 "/home/ws/nucleisys-n-sdk/bsp/core/drivers/func.c" 1
	csrrc a5, mstatus, t0
# 0 "" 2
.LVL0:
	.loc 1 22 264
 #NO_APP
.LBE2:
	.loc 1 25 5
 #APP
# 25 "/home/ws/nucleisys-n-sdk/bsp/core/drivers/func.c" 1
	la x6, 1f    
# 0 "" 2
	.loc 1 26 5
# 26 "/home/ws/nucleisys-n-sdk/bsp/core/drivers/func.c" 1
	csrw mepc, x6
# 0 "" 2
	.loc 1 27 5
# 27 "/home/ws/nucleisys-n-sdk/bsp/core/drivers/func.c" 1
	mret
# 0 "" 2
	.loc 1 28 5
# 28 "/home/ws/nucleisys-n-sdk/bsp/core/drivers/func.c" 1
	1:
# 0 "" 2
	.loc 1 29 1 is_stmt 0
 #NO_APP
	ret
	.cfi_endproc
.LFE5:
	.size	switch_m2u_mode, .-switch_m2u_mode
	.section	.text.mtime_lo,"ax",@progbits
	.align	1
	.align	2
	.globl	mtime_lo
	.type	mtime_lo, @function
mtime_lo:
.LFB6:
	.loc 1 32 1 is_stmt 1
	.cfi_startproc
	.loc 1 33 3
	.loc 1 33 10 is_stmt 0
	li	a5,33554432
	lw	a0,0(a5)
	.loc 1 34 1
	ret
	.cfi_endproc
.LFE6:
	.size	mtime_lo, .-mtime_lo
	.section	.text.mtime_hi,"ax",@progbits
	.align	1
	.align	2
	.globl	mtime_hi
	.type	mtime_hi, @function
mtime_hi:
.LFB7:
	.loc 1 38 1 is_stmt 1
	.cfi_startproc
	.loc 1 39 3
	.loc 1 39 10 is_stmt 0
	li	a5,33554432
	lw	a0,4(a5)
	.loc 1 40 1
	ret
	.cfi_endproc
.LFE7:
	.size	mtime_hi, .-mtime_hi
	.section	.text.get_timer_value,"ax",@progbits
	.align	1
	.align	2
	.globl	get_timer_value
	.type	get_timer_value, @function
get_timer_value:
.LFB8:
	.loc 1 43 1 is_stmt 1
	.cfi_startproc
	addi	sp,sp,-16
	.cfi_def_cfa_offset 16
	sw	ra,12(sp)
	sw	s0,8(sp)
	sw	s1,4(sp)
	.cfi_offset 1, -4
	.cfi_offset 8, -8
	.cfi_offset 9, -12
	.align	2
.L7:
	.loc 1 44 3
.LBB3:
	.loc 1 45 5
	.loc 1 45 19 is_stmt 0
	call	mtime_hi
.LVL1:
	mv	s0,a0
.LVL2:
	.loc 1 46 5 is_stmt 1
	.loc 1 46 19 is_stmt 0
	call	mtime_lo
.LVL3:
	mv	s1,a0
.LVL4:
	.loc 1 47 5 is_stmt 1
	.loc 1 47 15 is_stmt 0
	call	mtime_hi
.LVL5:
	.loc 1 47 8
	bne	a0,s0,.L7
.LBE3:
	.loc 1 50 1
	lw	ra,12(sp)
	.cfi_restore 1
	lw	s0,8(sp)
	.cfi_restore 8
.LVL6:
	mv	a1,a0
.LBB4:
	.loc 1 48 7 is_stmt 1
.LBE4:
	.loc 1 50 1 is_stmt 0
	mv	a0,s1
	lw	s1,4(sp)
	.cfi_restore 9
.LVL7:
	addi	sp,sp,16
	.cfi_def_cfa_offset 0
	jr	ra
	.cfi_endproc
.LFE8:
	.size	get_timer_value, .-get_timer_value
	.section	.text.get_timer_freq,"ax",@progbits
	.align	1
	.align	2
	.globl	get_timer_freq
	.type	get_timer_freq, @function
get_timer_freq:
.LFB9:
	.loc 1 53 1 is_stmt 1
	.cfi_startproc
	.loc 1 54 3
	.loc 1 55 1 is_stmt 0
	li	a0,32768
	ret
	.cfi_endproc
.LFE9:
	.size	get_timer_freq, .-get_timer_freq
	.section	.text.get_instret_value,"ax",@progbits
	.align	1
	.align	2
	.globl	get_instret_value
	.type	get_instret_value, @function
get_instret_value:
.LFB10:
	.loc 1 58 1 is_stmt 1
	.cfi_startproc
	.align	2
.L12:
	.loc 1 59 3
.LBB5:
	.loc 1 60 5
.LBB6:
	.loc 1 60 22
	.loc 1 60 43
 #APP
# 60 "/home/ws/nucleisys-n-sdk/bsp/core/drivers/func.c" 1
	csrr a1, minstreth
# 0 "" 2
.LVL8:
	.loc 1 60 97
 #NO_APP
.LBE6:
	.loc 1 61 5
.LBB7:
	.loc 1 61 22
	.loc 1 61 43
 #APP
# 61 "/home/ws/nucleisys-n-sdk/bsp/core/drivers/func.c" 1
	csrr a0, minstret
# 0 "" 2
.LVL9:
	.loc 1 61 96
 #NO_APP
.LBE7:
	.loc 1 62 5
.LBB8:
	.loc 1 62 18
	.loc 1 62 39
 #APP
# 62 "/home/ws/nucleisys-n-sdk/bsp/core/drivers/func.c" 1
	csrr a5, minstreth
# 0 "" 2
.LVL10:
	.loc 1 62 93
 #NO_APP
.LBE8:
	.loc 1 62 8 is_stmt 0
	bne	a1,a5,.L12
.LBE5:
	.loc 1 65 1
	ret
	.cfi_endproc
.LFE10:
	.size	get_instret_value, .-get_instret_value
	.section	.text.get_cycle_value,"ax",@progbits
	.align	1
	.align	2
	.globl	get_cycle_value
	.type	get_cycle_value, @function
get_cycle_value:
.LFB11:
	.loc 1 68 1 is_stmt 1
	.cfi_startproc
	.align	2
.L15:
	.loc 1 69 3
.LBB9:
	.loc 1 70 5
.LBB10:
	.loc 1 70 22
	.loc 1 70 43
 #APP
# 70 "/home/ws/nucleisys-n-sdk/bsp/core/drivers/func.c" 1
	csrr a1, mcycleh
# 0 "" 2
.LVL11:
	.loc 1 70 95
 #NO_APP
.LBE10:
	.loc 1 71 5
.LBB11:
	.loc 1 71 22
	.loc 1 71 43
 #APP
# 71 "/home/ws/nucleisys-n-sdk/bsp/core/drivers/func.c" 1
	csrr a0, mcycle
# 0 "" 2
.LVL12:
	.loc 1 71 94
 #NO_APP
.LBE11:
	.loc 1 72 5
.LBB12:
	.loc 1 72 18
	.loc 1 72 39
 #APP
# 72 "/home/ws/nucleisys-n-sdk/bsp/core/drivers/func.c" 1
	csrr a5, mcycleh
# 0 "" 2
.LVL13:
	.loc 1 72 91
 #NO_APP
.LBE12:
	.loc 1 72 8 is_stmt 0
	bne	a1,a5,.L15
.LBE9:
	.loc 1 75 1
	ret
	.cfi_endproc
.LFE11:
	.size	get_cycle_value, .-get_cycle_value
	.section	.text.measure_cpu_freq,"ax",@progbits
	.align	1
	.align	2
	.globl	measure_cpu_freq
	.type	measure_cpu_freq, @function
measure_cpu_freq:
.LFB12:
	.loc 1 78 1 is_stmt 1
	.cfi_startproc
.LVL14:
	.loc 1 79 3
	.loc 1 80 3
	.loc 1 78 1 is_stmt 0
	addi	sp,sp,-32
	.cfi_def_cfa_offset 32
	sw	ra,28(sp)
	sw	s1,20(sp)
	sw	s2,16(sp)
	sw	s3,12(sp)
	sw	s0,24(sp)
	.cfi_offset 1, -4
	.cfi_offset 9, -12
	.cfi_offset 18, -16
	.cfi_offset 19, -20
	.cfi_offset 8, -8
	.loc 1 78 1
	mv	s1,a0
	.loc 1 80 25
	call	get_timer_freq
.LVL15:
	mv	s3,a0
.LVL16:
	.loc 1 83 3 is_stmt 1
	.loc 1 83 18 is_stmt 0
	call	mtime_lo
.LVL17:
	mv	s2,a0
.LVL18:
	.align	2
.L18:
	.loc 1 84 3 is_stmt 1 discriminator 1
	.loc 1 85 5 discriminator 1
	.loc 1 85 19 is_stmt 0 discriminator 1
	call	mtime_lo
.LVL19:
	mv	s0,a0
.LVL20:
	.loc 1 86 11 is_stmt 1 discriminator 1
	.loc 1 86 3 is_stmt 0 discriminator 1
	beq	s2,a0,.L18
	.loc 1 88 3 is_stmt 1
.LBB13:
	.loc 1 88 30
	.loc 1 88 51
 #APP
# 88 "/home/ws/nucleisys-n-sdk/bsp/core/drivers/func.c" 1
	csrr s2, mcycle
# 0 "" 2
.LVL21:
	.loc 1 88 102
	.align	2
 #NO_APP
.L19:
.LBE13:
	.loc 1 90 3 discriminator 1
	.loc 1 91 5 discriminator 1
	.loc 1 91 19 is_stmt 0 discriminator 1
	call	mtime_lo
.LVL22:
	.loc 1 91 17 discriminator 1
	sub	a0,a0,s0
.LVL23:
	.loc 1 92 11 is_stmt 1 discriminator 1
	.loc 1 92 3 is_stmt 0 discriminator 1
	bltu	a0,s1,.L19
	.loc 1 94 3 is_stmt 1
.LBB14:
	.loc 1 94 30
	.loc 1 94 51
 #APP
# 94 "/home/ws/nucleisys-n-sdk/bsp/core/drivers/func.c" 1
	csrr a5, mcycle
# 0 "" 2
.LVL24:
	.loc 1 94 102
 #NO_APP
.LBE14:
	.loc 1 94 12 is_stmt 0
	sub	ra,a5,s2
.LVL25:
	.loc 1 96 3 is_stmt 1
	.loc 1 97 27 is_stmt 0
	remu	a4,ra,a0
	.loc 1 98 1
	lw	s0,24(sp)
	.cfi_restore 8
.LVL26:
	lw	s1,20(sp)
	.cfi_restore 9
.LVL27:
	lw	s2,16(sp)
	.cfi_restore 18
.LVL28:
	.loc 1 96 24
	divu	t0,ra,a0
	.loc 1 98 1
	lw	ra,28(sp)
	.cfi_restore 1
.LVL29:
	.loc 1 97 42
	mul	t1,a4,s3
	.loc 1 97 56
	divu	t2,t1,a0
	.loc 1 96 39
	mul	a1,t0,s3
	.loc 1 98 1
	lw	s3,12(sp)
	.cfi_restore 19
.LVL30:
	addi	sp,sp,32
	.cfi_def_cfa_offset 0
	add	a0,t2,a1
.LVL31:
	jr	ra
	.cfi_endproc
.LFE12:
	.size	measure_cpu_freq, .-measure_cpu_freq
	.section	.text.get_cpu_freq,"ax",@progbits
	.align	1
	.align	2
	.globl	get_cpu_freq
	.type	get_cpu_freq, @function
get_cpu_freq:
.LFB13:
	.loc 1 101 1 is_stmt 1
	.cfi_startproc
	.loc 1 102 3
	.loc 1 105 3
	.loc 1 101 1 is_stmt 0
	addi	sp,sp,-16
	.cfi_def_cfa_offset 16
	.loc 1 105 3
	li	a0,1
	.loc 1 101 1
	sw	ra,12(sp)
	.cfi_offset 1, -4
	.loc 1 105 3
	call	measure_cpu_freq
.LVL32:
	.loc 1 107 3 is_stmt 1
	.loc 1 110 1 is_stmt 0
	lw	ra,12(sp)
	.cfi_restore 1
	.loc 1 107 14
	li	a0,100
	.loc 1 110 1
	addi	sp,sp,16
	.cfi_def_cfa_offset 0
	.loc 1 107 14
	tail	measure_cpu_freq
.LVL33:
	.cfi_endproc
.LFE13:
	.size	get_cpu_freq, .-get_cpu_freq
	.section	.text.eclic_init,"ax",@progbits
	.align	1
	.align	2
	.globl	eclic_init
	.type	eclic_init, @function
eclic_init:
.LFB14:
	.loc 1 121 1 is_stmt 1
	.cfi_startproc
.LVL34:
	.loc 1 123 3
	.loc 1 126 3
	.loc 1 126 43 is_stmt 0
	li	a5,201326592
	sb	zero,0(a5)
	.loc 1 129 3 is_stmt 1
	.loc 1 135 41 is_stmt 0
	slli	a0,a0,4
.LVL35:
	.loc 1 135 15
	li	a3,201330688
	.loc 1 129 43
	sb	zero,11(a5)
	.loc 1 132 3 is_stmt 1
	.loc 1 134 3
.LVL36:
	.loc 1 135 3
	.loc 1 135 15 is_stmt 0
	add	t0,a3,a0
.LVL37:
	.loc 1 137 3 is_stmt 1
	.loc 1 137 20
	.loc 1 137 3 is_stmt 0
	bleu	t0,a3,.L25
	not	a4,a3
	add	t1,t0,a4
	srli	t2,t1,4
	.loc 1 138 10
	sw	zero,0(a3)
	.loc 1 137 36
	addi	t6,a3,16
	andi	a1,t2,7
	.loc 1 138 5 is_stmt 1
	.loc 1 137 33
	.loc 1 137 20
	.loc 1 137 3 is_stmt 0
	bleu	t0,t6,.L59
	beqz	a1,.L27
	li	a2,1
	beq	a1,a2,.L52
	li	a6,2
	beq	a1,a6,.L53
	li	a7,3
	beq	a1,a7,.L54
	li	t3,4
	beq	a1,t3,.L55
	li	t4,5
	beq	a1,t4,.L56
	li	t5,6
	beq	a1,t5,.L57
	.loc 1 138 5 is_stmt 1
	.loc 1 138 10 is_stmt 0
	sw	zero,0(t6)
	.loc 1 137 33 is_stmt 1
	.loc 1 137 36 is_stmt 0
	addi	t6,a3,32
	.loc 1 137 20 is_stmt 1
.L57:
	.loc 1 138 5
	.loc 1 138 10 is_stmt 0
	sw	zero,0(t6)
	.loc 1 137 33 is_stmt 1
	.loc 1 137 36 is_stmt 0
	addi	t6,t6,16
	.loc 1 137 20 is_stmt 1
.L56:
	.loc 1 138 5
	.loc 1 138 10 is_stmt 0
	sw	zero,0(t6)
	.loc 1 137 33 is_stmt 1
	.loc 1 137 36 is_stmt 0
	addi	t6,t6,16
	.loc 1 137 20 is_stmt 1
.L55:
	.loc 1 138 5
	.loc 1 138 10 is_stmt 0
	sw	zero,0(t6)
	.loc 1 137 33 is_stmt 1
	.loc 1 137 36 is_stmt 0
	addi	t6,t6,16
	.loc 1 137 20 is_stmt 1
.L54:
	.loc 1 138 5
	.loc 1 138 10 is_stmt 0
	sw	zero,0(t6)
	.loc 1 137 33 is_stmt 1
	.loc 1 137 36 is_stmt 0
	addi	t6,t6,16
	.loc 1 137 20 is_stmt 1
.L53:
	.loc 1 138 5
	.loc 1 138 10 is_stmt 0
	sw	zero,0(t6)
	.loc 1 137 33 is_stmt 1
	.loc 1 137 36 is_stmt 0
	addi	t6,t6,16
	.loc 1 137 20 is_stmt 1
.L52:
	.loc 1 138 5
	.loc 1 138 10 is_stmt 0
	sw	zero,0(t6)
	.loc 1 137 33 is_stmt 1
	.loc 1 137 36 is_stmt 0
	addi	t6,t6,16
	.loc 1 137 20 is_stmt 1
	.loc 1 137 3 is_stmt 0
	bleu	t0,t6,.L60
.L27:
	.loc 1 138 5 is_stmt 1 discriminator 3
	.loc 1 138 10 is_stmt 0 discriminator 3
	sw	zero,0(t6)
	.loc 1 137 33 is_stmt 1 discriminator 3
	.loc 1 137 20 discriminator 3
	.loc 1 138 5 discriminator 3
	.loc 1 138 10 is_stmt 0 discriminator 3
	sw	zero,16(t6)
	.loc 1 137 33 is_stmt 1 discriminator 3
	.loc 1 137 20 discriminator 3
	.loc 1 138 5 discriminator 3
	.loc 1 138 10 is_stmt 0 discriminator 3
	sw	zero,32(t6)
	.loc 1 137 33 is_stmt 1 discriminator 3
	.loc 1 137 20 discriminator 3
	.loc 1 138 5 discriminator 3
	.loc 1 138 10 is_stmt 0 discriminator 3
	sw	zero,48(t6)
	.loc 1 137 33 is_stmt 1 discriminator 3
	.loc 1 137 20 discriminator 3
	.loc 1 138 5 discriminator 3
	.loc 1 138 10 is_stmt 0 discriminator 3
	sw	zero,64(t6)
	.loc 1 137 33 is_stmt 1 discriminator 3
	.loc 1 137 20 discriminator 3
	.loc 1 138 5 discriminator 3
	.loc 1 138 10 is_stmt 0 discriminator 3
	sw	zero,80(t6)
	.loc 1 137 33 is_stmt 1 discriminator 3
	.loc 1 137 20 discriminator 3
	.loc 1 138 5 discriminator 3
	.loc 1 138 10 is_stmt 0 discriminator 3
	sw	zero,96(t6)
	.loc 1 137 33 is_stmt 1 discriminator 3
	.loc 1 137 20 discriminator 3
	.loc 1 138 5 discriminator 3
	.loc 1 138 10 is_stmt 0 discriminator 3
	sw	zero,112(t6)
	.loc 1 137 33 is_stmt 1 discriminator 3
	.loc 1 137 36 is_stmt 0 discriminator 3
	addi	t6,t6,128
	.loc 1 137 20 is_stmt 1 discriminator 3
	.loc 1 137 3 is_stmt 0 discriminator 3
	bgtu	t0,t6,.L27
.LVL38:
.L25:
	.loc 1 140 1
	ret
.LVL39:
.L60:
	ret
	.align	2
.L59:
	ret
	.cfi_endproc
.LFE14:
	.size	eclic_init, .-eclic_init
	.section	.text.eclic_enable_interrupt,"ax",@progbits
	.align	1
	.align	2
	.globl	eclic_enable_interrupt
	.type	eclic_enable_interrupt, @function
eclic_enable_interrupt:
.LFB15:
	.loc 1 144 47 is_stmt 1
	.cfi_startproc
.LVL40:
	.loc 1 145 5
	.loc 1 145 51 is_stmt 0
	li	a5,201330688
	.loc 1 145 58
	slli	a0,a0,2
.LVL41:
	.loc 1 145 51
	addi	t0,a5,1
	add	t1,a0,t0
	.loc 1 145 62
	li	t2,1
	sb	t2,0(t1)
	.loc 1 146 1
	ret
	.cfi_endproc
.LFE15:
	.size	eclic_enable_interrupt, .-eclic_enable_interrupt
	.section	.text.eclic_disable_interrupt,"ax",@progbits
	.align	1
	.align	2
	.globl	eclic_disable_interrupt
	.type	eclic_disable_interrupt, @function
eclic_disable_interrupt:
.LFB16:
	.loc 1 148 47 is_stmt 1
	.cfi_startproc
.LVL42:
	.loc 1 149 5
	.loc 1 149 51 is_stmt 0
	li	a5,201330688
	.loc 1 149 58
	slli	a0,a0,2
.LVL43:
	.loc 1 149 51
	addi	t0,a5,1
	add	t1,a0,t0
	.loc 1 149 62
	sb	zero,0(t1)
	.loc 1 150 1
	ret
	.cfi_endproc
.LFE16:
	.size	eclic_disable_interrupt, .-eclic_disable_interrupt
	.section	.text.eclic_set_pending,"ax",@progbits
	.align	1
	.align	2
	.globl	eclic_set_pending
	.type	eclic_set_pending, @function
eclic_set_pending:
.LFB17:
	.loc 1 152 40 is_stmt 1
	.cfi_startproc
.LVL44:
	.loc 1 153 5
	.loc 1 153 51 is_stmt 0
	li	a5,50331648
	addi	t0,a5,1024
	add	a0,a0,t0
.LVL45:
	slli	t1,a0,2
	.loc 1 153 62
	li	t2,1
	sb	t2,0(t1)
	.loc 1 154 1
	ret
	.cfi_endproc
.LFE17:
	.size	eclic_set_pending, .-eclic_set_pending
	.section	.text.eclic_clear_pending,"ax",@progbits
	.align	1
	.align	2
	.globl	eclic_clear_pending
	.type	eclic_clear_pending, @function
eclic_clear_pending:
.LFB18:
	.loc 1 156 42 is_stmt 1
	.cfi_startproc
.LVL46:
	.loc 1 157 5
	.loc 1 157 51 is_stmt 0
	li	a5,50331648
	addi	t0,a5,1024
	add	a0,a0,t0
.LVL47:
	slli	t1,a0,2
	.loc 1 157 62
	sb	zero,0(t1)
	.loc 1 158 1
	ret
	.cfi_endproc
.LFE18:
	.size	eclic_clear_pending, .-eclic_clear_pending
	.section	.text.eclic_set_intctrl,"ax",@progbits
	.align	1
	.align	2
	.globl	eclic_set_intctrl
	.type	eclic_set_intctrl, @function
eclic_set_intctrl:
.LFB19:
	.loc 1 160 58 is_stmt 1
	.cfi_startproc
.LVL48:
	.loc 1 161 3
	.loc 1 161 49 is_stmt 0
	li	a5,201330688
	.loc 1 161 56
	slli	a0,a0,2
.LVL49:
	.loc 1 161 49
	addi	t0,a5,3
	add	t1,a0,t0
	.loc 1 161 60
	sb	a1,0(t1)
	.loc 1 162 1
	ret
	.cfi_endproc
.LFE19:
	.size	eclic_set_intctrl, .-eclic_set_intctrl
	.section	.text.eclic_get_intctrl,"ax",@progbits
	.align	1
	.align	2
	.globl	eclic_get_intctrl
	.type	eclic_get_intctrl, @function
eclic_get_intctrl:
.LFB20:
	.loc 1 164 44 is_stmt 1
	.cfi_startproc
.LVL50:
	.loc 1 165 3
	.loc 1 165 56 is_stmt 0
	li	a5,201330688
	.loc 1 165 63
	slli	a0,a0,2
.LVL51:
	.loc 1 165 56
	addi	t0,a5,3
	add	t1,a0,t0
	.loc 1 165 10
	lbu	a0,0(t1)
	.loc 1 166 1
	ret
	.cfi_endproc
.LFE20:
	.size	eclic_get_intctrl, .-eclic_get_intctrl
	.section	.text.eclic_set_intattr,"ax",@progbits
	.align	1
	.align	2
	.globl	eclic_set_intattr
	.type	eclic_set_intattr, @function
eclic_set_intattr:
.LFB21:
	.loc 1 168 58 is_stmt 1
	.cfi_startproc
.LVL52:
	.loc 1 169 3
	.loc 1 169 49 is_stmt 0
	li	a5,201330688
	.loc 1 169 56
	slli	a0,a0,2
.LVL53:
	.loc 1 169 49
	addi	t0,a5,2
	add	t1,a0,t0
	.loc 1 169 60
	sb	a1,0(t1)
	.loc 1 170 1
	ret
	.cfi_endproc
.LFE21:
	.size	eclic_set_intattr, .-eclic_set_intattr
	.section	.text.eclic_get_intattr,"ax",@progbits
	.align	1
	.align	2
	.globl	eclic_get_intattr
	.type	eclic_get_intattr, @function
eclic_get_intattr:
.LFB22:
	.loc 1 172 44 is_stmt 1
	.cfi_startproc
.LVL54:
	.loc 1 173 3
	.loc 1 173 56 is_stmt 0
	li	a5,201330688
	.loc 1 173 63
	slli	a0,a0,2
.LVL55:
	.loc 1 173 56
	addi	t0,a5,2
	add	t1,a0,t0
	.loc 1 173 10
	lbu	a0,0(t1)
	.loc 1 174 1
	ret
	.cfi_endproc
.LFE22:
	.size	eclic_get_intattr, .-eclic_get_intattr
	.section	.text.eclic_set_cliccfg,"ax",@progbits
	.align	1
	.align	2
	.globl	eclic_set_cliccfg
	.type	eclic_set_cliccfg, @function
eclic_set_cliccfg:
.LFB23:
	.loc 1 176 41 is_stmt 1
	.cfi_startproc
.LVL56:
	.loc 1 177 3
	.loc 1 177 44 is_stmt 0
	li	a5,201326592
	sb	a0,0(a5)
	.loc 1 178 1
	ret
	.cfi_endproc
.LFE23:
	.size	eclic_set_cliccfg, .-eclic_set_cliccfg
	.section	.text.eclic_get_cliccfg,"ax",@progbits
	.align	1
	.align	2
	.globl	eclic_get_cliccfg
	.type	eclic_get_cliccfg, @function
eclic_get_cliccfg:
.LFB24:
	.loc 1 180 29 is_stmt 1
	.cfi_startproc
	.loc 1 181 3
	.loc 1 181 10 is_stmt 0
	li	a5,201326592
	lbu	a0,0(a5)
	.loc 1 182 1
	ret
	.cfi_endproc
.LFE24:
	.size	eclic_get_cliccfg, .-eclic_get_cliccfg
	.section	.text.eclic_set_mth,"ax",@progbits
	.align	1
	.align	2
	.globl	eclic_set_mth
	.type	eclic_set_mth, @function
eclic_set_mth:
.LFB25:
	.loc 1 184 33 is_stmt 1
	.cfi_startproc
.LVL57:
	.loc 1 185 3
	.loc 1 185 44 is_stmt 0
	li	a5,201326592
	sb	a0,11(a5)
	.loc 1 186 1
	ret
	.cfi_endproc
.LFE25:
	.size	eclic_set_mth, .-eclic_set_mth
	.section	.text.eclic_get_mth,"ax",@progbits
	.align	1
	.align	2
	.globl	eclic_get_mth
	.type	eclic_get_mth, @function
eclic_get_mth:
.LFB26:
	.loc 1 188 25 is_stmt 1
	.cfi_startproc
	.loc 1 189 3
	.loc 1 189 10 is_stmt 0
	li	a5,201326592
	lbu	a0,11(a5)
	.loc 1 190 1
	ret
	.cfi_endproc
.LFE26:
	.size	eclic_get_mth, .-eclic_get_mth
	.section	.text.eclic_set_nlbits,"ax",@progbits
	.align	1
	.align	2
	.globl	eclic_set_nlbits
	.type	eclic_set_nlbits, @function
eclic_set_nlbits:
.LFB27:
	.loc 1 193 39 is_stmt 1
	.cfi_startproc
.LVL58:
	.loc 1 195 3
	.loc 1 193 39 is_stmt 0
	addi	sp,sp,-16
	.cfi_def_cfa_offset 16
	sw	s0,8(sp)
	sw	ra,12(sp)
	.cfi_offset 8, -8
	.cfi_offset 1, -4
	.loc 1 193 39
	mv	s0,a0
.LVL59:
	.loc 1 198 3 is_stmt 1
	.loc 1 198 25 is_stmt 0
	call	eclic_get_cliccfg
.LVL60:
	.loc 1 199 3 is_stmt 1
	.loc 1 201 3
	.loc 1 195 11 is_stmt 0
	slli	t0,s0,1
	.loc 1 202 1
	lw	s0,8(sp)
	.cfi_restore 8
.LVL61:
	lw	ra,12(sp)
	.cfi_restore 1
	.loc 1 199 65
	andi	t1,t0,30
	.loc 1 199 11
	andi	a0,a0,225
.LVL62:
	.loc 1 202 1
	.loc 1 201 3
	or	a0,a0,t1
	.loc 1 202 1
	addi	sp,sp,16
	.cfi_def_cfa_offset 0
	.loc 1 201 3
	tail	eclic_set_cliccfg
.LVL63:
	.cfi_endproc
.LFE27:
	.size	eclic_set_nlbits, .-eclic_set_nlbits
	.section	.text.eclic_get_nlbits,"ax",@progbits
	.align	1
	.align	2
	.globl	eclic_get_nlbits
	.type	eclic_get_nlbits, @function
eclic_get_nlbits:
.LFB28:
	.loc 1 205 28 is_stmt 1
	.cfi_startproc
	.loc 1 207 3
	.loc 1 207 20 is_stmt 0
	tail	eclic_get_cliccfg
.LVL64:
	.cfi_endproc
.LFE28:
	.size	eclic_get_nlbits, .-eclic_get_nlbits
	.section	.text.eclic_set_irq_lvl,"ax",@progbits
	.align	1
	.align	2
	.globl	eclic_set_irq_lvl
	.type	eclic_set_irq_lvl, @function
eclic_set_irq_lvl:
.LFB29:
	.loc 1 212 54 is_stmt 1
	.cfi_startproc
.LVL65:
	.loc 1 214 3
	.loc 1 212 54 is_stmt 0
	addi	sp,sp,-32
	.cfi_def_cfa_offset 32
	sw	s1,20(sp)
	sw	s2,16(sp)
	sw	s3,12(sp)
	sw	ra,28(sp)
	sw	s0,24(sp)
	.cfi_offset 9, -12
	.cfi_offset 18, -16
	.cfi_offset 19, -20
	.cfi_offset 1, -4
	.cfi_offset 8, -8
	.loc 1 212 54
	mv	s2,a0
	mv	s1,a1
	.loc 1 214 20
	call	eclic_get_nlbits
.LVL66:
	.loc 1 215 3 is_stmt 1
	.loc 1 220 3
	.loc 1 220 18 is_stmt 0
	li	a5,3
	li	s3,3
	bgtu	a0,a5,.L77
	mv	s3,a0
.L77:
	andi	a1,s3,0xff
	li	s0,8
	sub	ra,s0,a1
.LVL67:
	.loc 1 222 3 is_stmt 1
	.loc 1 220 13 is_stmt 0
	sra	t0,s1,ra
	.loc 1 225 29
	mv	a0,s2
.LVL68:
	.loc 1 222 13
	sll	s1,t0,ra
.LVL69:
	.loc 1 225 3 is_stmt 1
	.loc 1 225 29 is_stmt 0
	call	eclic_get_intctrl
.LVL70:
	.loc 1 227 3 is_stmt 1
	.loc 1 229 3
	.loc 1 227 37 is_stmt 0
	sll	t1,a0,s3
	.loc 1 229 37
	andi	t2,t1,255
	sra	a0,t2,s3
.LVL71:
	.loc 1 231 3 is_stmt 1
	.loc 1 232 1 is_stmt 0
	lw	s0,24(sp)
	.cfi_restore 8
	.loc 1 231 3
	or	a2,s1,a0
	.loc 1 232 1
	lw	ra,28(sp)
	.cfi_restore 1
	lw	s1,20(sp)
	.cfi_restore 9
.LVL72:
	lw	s3,12(sp)
	.cfi_restore 19
	.loc 1 231 3
	mv	a0,s2
.LVL73:
	.loc 1 232 1
	lw	s2,16(sp)
	.cfi_restore 18
.LVL74:
	.loc 1 231 3
	andi	a1,a2,0xff
	.loc 1 232 1
	addi	sp,sp,32
	.cfi_def_cfa_offset 0
	.loc 1 231 3
	tail	eclic_set_intctrl
.LVL75:
	.cfi_endproc
.LFE29:
	.size	eclic_set_irq_lvl, .-eclic_set_irq_lvl
	.section	.text.eclic_get_irq_lvl,"ax",@progbits
	.align	1
	.align	2
	.globl	eclic_get_irq_lvl
	.type	eclic_get_irq_lvl, @function
eclic_get_irq_lvl:
.LFB30:
	.loc 1 235 44 is_stmt 1
	.cfi_startproc
.LVL76:
	.loc 1 237 3
	.loc 1 235 44 is_stmt 0
	addi	sp,sp,-16
	.cfi_def_cfa_offset 16
	sw	ra,12(sp)
	sw	s0,8(sp)
	sw	s1,4(sp)
	.cfi_offset 1, -4
	.cfi_offset 8, -8
	.cfi_offset 9, -12
	.loc 1 235 44
	mv	s1,a0
	.loc 1 237 20
	call	eclic_get_nlbits
.LVL77:
	mv	s0,a0
	.loc 1 242 21
	mv	a0,s1
.LVL78:
	.loc 1 238 3 is_stmt 1
	.loc 1 242 3
	.loc 1 242 21 is_stmt 0
	call	eclic_get_intctrl
.LVL79:
	.loc 1 245 26
	li	a4,3
.LVL80:
	.loc 1 245 3 is_stmt 1
	.loc 1 245 26 is_stmt 0
	li	a5,3
	bgtu	s0,a4,.L81
	mv	a5,s0
.L81:
	andi	ra,a5,0xff
	li	t0,8
	sub	t1,t0,ra
.LVL81:
	.loc 1 247 3 is_stmt 1
	.loc 1 249 3
	.loc 1 250 1 is_stmt 0
	lw	s0,8(sp)
	.cfi_restore 8
.LVL82:
	lw	ra,12(sp)
	.cfi_restore 1
	.loc 1 245 21
	sra	a0,a0,t1
.LVL83:
	.loc 1 247 25
	sll	t2,a0,t1
	.loc 1 250 1
	lw	s1,4(sp)
	.cfi_restore 9
.LVL84:
	andi	a0,t2,0xff
	addi	sp,sp,16
	.cfi_def_cfa_offset 0
	jr	ra
	.cfi_endproc
.LFE30:
	.size	eclic_get_irq_lvl, .-eclic_get_irq_lvl
	.section	.text.eclic_set_irq_lvl_abs,"ax",@progbits
	.align	1
	.align	2
	.globl	eclic_set_irq_lvl_abs
	.type	eclic_set_irq_lvl_abs, @function
eclic_set_irq_lvl_abs:
.LFB31:
	.loc 1 252 62 is_stmt 1
	.cfi_startproc
.LVL85:
	.loc 1 254 3
	.loc 1 252 62 is_stmt 0
	addi	sp,sp,-16
	.cfi_def_cfa_offset 16
	sw	s0,8(sp)
	sw	s1,4(sp)
	sw	s2,0(sp)
	sw	ra,12(sp)
	.cfi_offset 8, -8
	.cfi_offset 9, -12
	.cfi_offset 18, -16
	.cfi_offset 1, -4
	.loc 1 252 62
	mv	s1,a0
	mv	s0,a1
	.loc 1 254 20
	call	eclic_get_nlbits
.LVL86:
	.loc 1 255 3 is_stmt 1
	.loc 1 260 3
	.loc 1 260 30 is_stmt 0
	li	a5,3
	li	s2,3
	bgtu	a0,a5,.L85
	mv	s2,a0
.L85:
	.loc 1 263 29
	mv	a0,s1
.LVL87:
	call	eclic_get_intctrl
.LVL88:
	.loc 1 265 37
	sll	t0,a0,s2
	.loc 1 260 30
	andi	a4,s2,0xff
.LVL89:
	.loc 1 263 3 is_stmt 1
	.loc 1 265 3
	.loc 1 267 3
	.loc 1 260 30 is_stmt 0
	li	a1,8
	sub	t2,a1,a4
	.loc 1 267 37
	andi	t1,t0,255
	sra	a0,t1,s2
.LVL90:
	.loc 1 269 3 is_stmt 1
	.loc 1 260 25 is_stmt 0
	sll	a2,s0,t2
	.loc 1 270 1
	lw	s0,8(sp)
	.cfi_restore 8
.LVL91:
	lw	ra,12(sp)
	.cfi_restore 1
	lw	s2,0(sp)
	.cfi_restore 18
	.loc 1 269 3
	or	a3,a2,a0
	mv	a0,s1
.LVL92:
	.loc 1 270 1
	lw	s1,4(sp)
	.cfi_restore 9
.LVL93:
	.loc 1 269 3
	andi	a1,a3,0xff
	.loc 1 270 1
	addi	sp,sp,16
	.cfi_def_cfa_offset 0
	.loc 1 269 3
	tail	eclic_set_intctrl
.LVL94:
	.cfi_endproc
.LFE31:
	.size	eclic_set_irq_lvl_abs, .-eclic_set_irq_lvl_abs
	.section	.text.eclic_get_irq_lvl_abs,"ax",@progbits
	.align	1
	.align	2
	.globl	eclic_get_irq_lvl_abs
	.type	eclic_get_irq_lvl_abs, @function
eclic_get_irq_lvl_abs:
.LFB32:
	.loc 1 272 48 is_stmt 1
	.cfi_startproc
.LVL95:
	.loc 1 274 3
	.loc 1 272 48 is_stmt 0
	addi	sp,sp,-16
	.cfi_def_cfa_offset 16
	sw	ra,12(sp)
	sw	s0,8(sp)
	sw	s1,4(sp)
	.cfi_offset 1, -4
	.cfi_offset 8, -8
	.cfi_offset 9, -12
	.loc 1 272 48
	mv	s1,a0
	.loc 1 274 20
	call	eclic_get_nlbits
.LVL96:
	mv	s0,a0
	.loc 1 279 21
	mv	a0,s1
.LVL97:
	.loc 1 275 3 is_stmt 1
	.loc 1 279 3
	.loc 1 279 21 is_stmt 0
	call	eclic_get_intctrl
.LVL98:
	.loc 1 282 26
	li	a4,3
.LVL99:
	.loc 1 282 3 is_stmt 1
	.loc 1 282 26 is_stmt 0
	li	a5,3
	bgtu	s0,a4,.L89
	andi	a5,s0,0xff
.L89:
	li	ra,8
	.loc 1 287 1
	lw	s0,8(sp)
	.cfi_restore 8
.LVL100:
	.loc 1 282 26
	sub	t0,ra,a5
	.loc 1 287 1
	lw	ra,12(sp)
	.cfi_restore 1
	.loc 1 282 21
	sra	a0,a0,t0
.LVL101:
	.loc 1 284 3 is_stmt 1
	.loc 1 286 3
	.loc 1 287 1 is_stmt 0
	lw	s1,4(sp)
	.cfi_restore 9
.LVL102:
	andi	a0,a0,0xff
	addi	sp,sp,16
	.cfi_def_cfa_offset 0
	jr	ra
	.cfi_endproc
.LFE32:
	.size	eclic_get_irq_lvl_abs, .-eclic_get_irq_lvl_abs
	.section	.text.eclic_mode_enable,"ax",@progbits
	.align	1
	.align	2
	.globl	eclic_mode_enable
	.type	eclic_mode_enable, @function
eclic_mode_enable:
.LFB33:
	.loc 1 289 26 is_stmt 1
	.cfi_startproc
	.loc 1 290 3
.LBB15:
	.loc 1 290 29
	.loc 1 290 50
 #APP
# 290 "/home/ws/nucleisys-n-sdk/bsp/core/drivers/func.c" 1
	csrr a5, mtvec
# 0 "" 2
.LVL103:
	.loc 1 290 100
 #NO_APP
.LBE15:
	.loc 1 291 3
	.loc 1 291 15 is_stmt 0
	andi	t0,a5,-64
.LVL104:
	.loc 1 292 3 is_stmt 1
	.loc 1 293 3
	.loc 1 293 146
	.loc 1 292 15 is_stmt 0
	ori	t1,t0,3
.LVL105:
	.loc 1 293 146
 #APP
# 293 "/home/ws/nucleisys-n-sdk/bsp/core/drivers/func.c" 1
	csrw mtvec, t1
# 0 "" 2
	.loc 1 294 1
 #NO_APP
	ret
	.cfi_endproc
.LFE33:
	.size	eclic_mode_enable, .-eclic_mode_enable
	.section	.text.eclic_set_vmode,"ax",@progbits
	.align	1
	.align	2
	.globl	eclic_set_vmode
	.type	eclic_set_vmode, @function
eclic_set_vmode:
.LFB34:
	.loc 1 297 39 is_stmt 1
	.cfi_startproc
.LVL106:
	.loc 1 299 3
	.loc 1 297 39 is_stmt 0
	addi	sp,sp,-16
	.cfi_def_cfa_offset 16
	sw	s0,8(sp)
	sw	ra,12(sp)
	.cfi_offset 8, -8
	.cfi_offset 1, -4
	.loc 1 297 39
	mv	s0,a0
	.loc 1 299 25
	call	eclic_get_intattr
.LVL107:
	.loc 1 301 3 is_stmt 1
	.loc 1 303 3
	.loc 1 301 11 is_stmt 0
	ori	a1,a0,1
	.loc 1 303 3
	mv	a0,s0
.LVL108:
	.loc 1 304 1
	lw	s0,8(sp)
	.cfi_restore 8
.LVL109:
	lw	ra,12(sp)
	.cfi_restore 1
	.loc 1 303 3
	andi	a1,a1,0xff
	.loc 1 304 1
	addi	sp,sp,16
	.cfi_def_cfa_offset 0
	.loc 1 303 3
	tail	eclic_set_intattr
.LVL110:
	.cfi_endproc
.LFE34:
	.size	eclic_set_vmode, .-eclic_set_vmode
	.section	.text.eclic_set_nonvmode,"ax",@progbits
	.align	1
	.align	2
	.globl	eclic_set_nonvmode
	.type	eclic_set_nonvmode, @function
eclic_set_nonvmode:
.LFB35:
	.loc 1 306 42 is_stmt 1
	.cfi_startproc
.LVL111:
	.loc 1 308 3
	.loc 1 306 42 is_stmt 0
	addi	sp,sp,-16
	.cfi_def_cfa_offset 16
	sw	s0,8(sp)
	sw	ra,12(sp)
	.cfi_offset 8, -8
	.cfi_offset 1, -4
	.loc 1 306 42
	mv	s0,a0
	.loc 1 308 25
	call	eclic_get_intattr
.LVL112:
	.loc 1 310 3 is_stmt 1
	.loc 1 312 3
	andi	a1,a0,254
	mv	a0,s0
.LVL113:
	.loc 1 313 1 is_stmt 0
	lw	s0,8(sp)
	.cfi_restore 8
.LVL114:
	lw	ra,12(sp)
	.cfi_restore 1
	addi	sp,sp,16
	.cfi_def_cfa_offset 0
	.loc 1 312 3
	tail	eclic_set_intattr
.LVL115:
	.cfi_endproc
.LFE35:
	.size	eclic_set_nonvmode, .-eclic_set_nonvmode
	.section	.text.eclic_set_level_trig,"ax",@progbits
	.align	1
	.align	2
	.globl	eclic_set_level_trig
	.type	eclic_set_level_trig, @function
eclic_set_level_trig:
.LFB36:
	.loc 1 319 44 is_stmt 1
	.cfi_startproc
.LVL116:
	.loc 1 321 3
	.loc 1 319 44 is_stmt 0
	addi	sp,sp,-16
	.cfi_def_cfa_offset 16
	sw	s0,8(sp)
	sw	ra,12(sp)
	.cfi_offset 8, -8
	.cfi_offset 1, -4
	.loc 1 319 44
	mv	s0,a0
	.loc 1 321 25
	call	eclic_get_intattr
.LVL117:
	.loc 1 323 3 is_stmt 1
	.loc 1 325 3
	andi	a1,a0,253
	mv	a0,s0
.LVL118:
	.loc 1 326 1 is_stmt 0
	lw	s0,8(sp)
	.cfi_restore 8
.LVL119:
	lw	ra,12(sp)
	.cfi_restore 1
	addi	sp,sp,16
	.cfi_def_cfa_offset 0
	.loc 1 325 3
	tail	eclic_set_intattr
.LVL120:
	.cfi_endproc
.LFE36:
	.size	eclic_set_level_trig, .-eclic_set_level_trig
	.section	.text.eclic_set_posedge_trig,"ax",@progbits
	.align	1
	.align	2
	.globl	eclic_set_posedge_trig
	.type	eclic_set_posedge_trig, @function
eclic_set_posedge_trig:
.LFB37:
	.loc 1 328 46 is_stmt 1
	.cfi_startproc
.LVL121:
	.loc 1 330 3
	.loc 1 328 46 is_stmt 0
	addi	sp,sp,-16
	.cfi_def_cfa_offset 16
	sw	s0,8(sp)
	sw	ra,12(sp)
	.cfi_offset 8, -8
	.cfi_offset 1, -4
	.loc 1 328 46
	mv	s0,a0
	.loc 1 330 25
	call	eclic_get_intattr
.LVL122:
	.loc 1 332 3 is_stmt 1
	.loc 1 334 3
	.loc 1 336 3
	.loc 1 334 15 is_stmt 0
	andi	a1,a0,251
	.loc 1 336 3
	mv	a0,s0
.LVL123:
	.loc 1 337 1
	lw	s0,8(sp)
	.cfi_restore 8
.LVL124:
	lw	ra,12(sp)
	.cfi_restore 1
	.loc 1 336 3
	ori	a1,a1,2
	.loc 1 337 1
	addi	sp,sp,16
	.cfi_def_cfa_offset 0
	.loc 1 336 3
	tail	eclic_set_intattr
.LVL125:
	.cfi_endproc
.LFE37:
	.size	eclic_set_posedge_trig, .-eclic_set_posedge_trig
	.section	.text.eclic_set_negedge_trig,"ax",@progbits
	.align	1
	.align	2
	.globl	eclic_set_negedge_trig
	.type	eclic_set_negedge_trig, @function
eclic_set_negedge_trig:
.LFB38:
	.loc 1 339 46 is_stmt 1
	.cfi_startproc
.LVL126:
	.loc 1 341 3
	.loc 1 339 46 is_stmt 0
	addi	sp,sp,-16
	.cfi_def_cfa_offset 16
	sw	s0,8(sp)
	sw	ra,12(sp)
	.cfi_offset 8, -8
	.cfi_offset 1, -4
	.loc 1 339 46
	mv	s0,a0
	.loc 1 341 25
	call	eclic_get_intattr
.LVL127:
	.loc 1 343 3 is_stmt 1
	.loc 1 345 3
	.loc 1 347 3
	.loc 1 345 15 is_stmt 0
	ori	a1,a0,6
	.loc 1 347 3
	mv	a0,s0
.LVL128:
	.loc 1 348 1
	lw	s0,8(sp)
	.cfi_restore 8
.LVL129:
	lw	ra,12(sp)
	.cfi_restore 1
	.loc 1 347 3
	andi	a1,a1,0xff
	.loc 1 348 1
	addi	sp,sp,16
	.cfi_def_cfa_offset 0
	.loc 1 347 3
	tail	eclic_set_intattr
.LVL130:
	.cfi_endproc
.LFE38:
	.size	eclic_set_negedge_trig, .-eclic_set_negedge_trig
	.section	.text.wfe,"ax",@progbits
	.align	1
	.align	2
	.globl	wfe
	.type	wfe, @function
wfe:
.LFB39:
	.loc 1 350 12 is_stmt 1
	.cfi_startproc
	.loc 1 351 3
	tail	core_wfe
.LVL131:
	.cfi_endproc
.LFE39:
	.size	wfe, .-wfe
	.text
.Letext0:
	.file 2 "/home/ws/gnu-mcu-eclipse/riscv-none-gcc/rv_linux_bare_1910081810/riscv-nuclei-elf/include/machine/_default_types.h"
	.file 3 "/home/ws/gnu-mcu-eclipse/riscv-none-gcc/rv_linux_bare_1910081810/lib/gcc/riscv-nuclei-elf/9.2.0/include/stddef.h"
	.file 4 "/home/ws/gnu-mcu-eclipse/riscv-none-gcc/rv_linux_bare_1910081810/riscv-nuclei-elf/include/sys/lock.h"
	.file 5 "/home/ws/gnu-mcu-eclipse/riscv-none-gcc/rv_linux_bare_1910081810/riscv-nuclei-elf/include/sys/_types.h"
	.file 6 "/home/ws/gnu-mcu-eclipse/riscv-none-gcc/rv_linux_bare_1910081810/riscv-nuclei-elf/include/sys/reent.h"
	.file 7 "/home/ws/gnu-mcu-eclipse/riscv-none-gcc/rv_linux_bare_1910081810/riscv-nuclei-elf/include/sys/_stdint.h"
	.file 8 "/home/ws/gnu-mcu-eclipse/riscv-none-gcc/rv_linux_bare_1910081810/riscv-nuclei-elf/include/stdlib.h"
	.file 9 "/home/ws/gnu-mcu-eclipse/riscv-none-gcc/rv_linux_bare_1910081810/riscv-nuclei-elf/include/sys/unistd.h"
	.file 10 "/home/ws/nucleisys-n-sdk/bsp/core/drivers/func.h"