	.file	"soc_func.c"
	.option nopic
	.attribute arch, "rv32i2p0_m2p0_a2p0_c2p0"
	.attribute unaligned_access, 0
	.attribute stack_align, 16
	.text
.Ltext0:
	.cfi_sections	.debug_frame
	.section	.text.uart_init,"ax",@progbits
	.align	1
	.align	2
	.globl	uart_init
	.type	uart_init, @function
uart_init:
.LFB3:
	.file 1 "/home/ws/nucleisys-n-sdk/bsp/soc/drivers/soc_func.c"
	.loc 1 11 1
	.cfi_startproc
.LVL0:
	.loc 1 12 3
	.loc 1 12 58 is_stmt 0
	li	a5,268509184
	lw	a4,60(a5)
	.loc 1 11 1
	addi	sp,sp,-16
	.cfi_def_cfa_offset 16
	.loc 1 12 58
	li	a3,-196608
	.loc 1 11 1
	sw	ra,12(sp)
	.cfi_offset 1, -4
	.loc 1 12 58
	addi	ra,a3,-1
	.loc 1 11 1
	sw	s0,8(sp)
	.cfi_offset 8, -8
	.loc 1 12 58
	and	t0,a4,ra
	sw	t0,60(a5)
	.loc 1 13 3 is_stmt 1
	.loc 1 13 58 is_stmt 0
	lw	t1,56(a5)
	li	t2,196608
	or	s0,t1,t2
	sw	s0,56(a5)
	.loc 1 14 3 is_stmt 1
	.loc 1 11 1 is_stmt 0
	mv	s0,a0
	.loc 1 14 58
	call	get_cpu_freq
.LVL1:
	.loc 1 14 73
	divu	a0,a0,s0
	.loc 1 14 56
	li	a1,268513280
	.loc 1 17 1
	lw	ra,12(sp)
	.cfi_restore 1
	lw	s0,8(sp)
	.cfi_restore 8
.LVL2:
	.loc 1 14 85
	addi	a2,a0,-1
	.loc 1 14 56
	sw	a2,24(a1)
	.loc 1 15 3 is_stmt 1
	.loc 1 15 56 is_stmt 0
	lw	a6,8(a1)
	ori	a7,a6,1
	sw	a7,8(a1)
	.loc 1 16 3 is_stmt 1
	.loc 1 16 56 is_stmt 0
	lw	t3,12(a1)
	ori	t4,t3,1
	sw	t4,12(a1)
	.loc 1 17 1
	addi	sp,sp,16
	.cfi_def_cfa_offset 0
	jr	ra
	.cfi_endproc
.LFE3:
	.size	uart_init, .-uart_init
	.section	.text.soc_init,"ax",@progbits
	.align	1
	.align	2
	.globl	soc_init
	.type	soc_init, @function
soc_init:
.LFB4:
	.loc 1 21 1 is_stmt 1
	.cfi_startproc
	.loc 1 23 3
	li	a0,114688
	addi	a0,a0,512
	tail	uart_init
.LVL3:
	.cfi_endproc
.LFE4:
	.size	soc_init, .-soc_init
	.text
.Letext0:
	.file 2 "/home/ws/gnu-mcu-eclipse/riscv-none-gcc/rv_linux_bare_1910081810/riscv-nuclei-elf/include/machine/_default_types.h"
	.file 3 "/home/ws/gnu-mcu-eclipse/riscv-none-gcc/rv_linux_bare_1910081810/lib/gcc/riscv-nuclei-elf/9.2.0/include/stddef.h"
	.file 4 "/home/ws/gnu-mcu-eclipse/riscv-none-gcc/rv_linux_bare_1910081810/riscv-nuclei-elf/include/sys/_stdint.h"
	.file 5 "/home/ws/gnu-mcu-eclipse/riscv-none-gcc/rv_linux_bare_1910081810/riscv-nuclei-elf/include/sys/lock.h"
	.file 6 "/home/ws/gnu-mcu-eclipse/riscv-none-gcc/rv_linux_bare_1910081810/riscv-nuclei-elf/include/sys/_types.h"
	.file 7 "/home/ws/gnu-mcu-eclipse/riscv-none-gcc/rv_linux_bare_1910081810/riscv-nuclei-elf/include/sys/reent.h"
	.file 8 "/home/ws/gnu-mcu-eclipse/riscv-none-gcc/rv_linux_bare_1910081810/riscv-nuclei-elf/include/sys/unistd.h"
	.file 9 "/home/ws/nucleisys-n-sdk/bsp/core/drivers/func.h"